Component: ARM Compiler 5.05 update 1 (build 106) Tool: armlink [4d0efa]

==============================================================================

Section Cross References

    app.o(.text) refers to ff.o(.text) for f_mount
    app.o(.text) refers to strcpy.o(.text) for strcpy
    app.o(.text) refers to strcat.o(.text) for strcat
    app.o(.text) refers to mp3_player.o(.text) for PlayMP3
    app.o(.text) refers to bsp_ser.o(.text) for BSP_Ser_Printf
    app.o(.text) refers to os_time.o(.text) for OSTimeDlyHMSM
    app.o(.text) refers to os_task.o(.text) for OSTaskCreate
    app.o(.text) refers to bsp.o(.text) for BSP_Init
    app.o(.text) refers to cpu_core.o(.text) for CPU_Init
    app.o(.text) refers to lib_mem.o(.text) for Mem_Init
    app.o(.text) refers to bsp_int.o(.text) for BSP_IntDisAll
    app.o(.text) refers to os_core.o(.text) for OSInit
    app.o(.text) refers to app.o(.bss) for AppSystemStk
    os_app_hooks.o(.text) refers to cpu_a.o(.text) for CPU_SR_Save
    os_app_hooks.o(.text) refers to os_var.o(.data) for OS_AppTaskCreateHookPtr
    pc_protocol.o(.text) refers to util.o(.text) for checkSum
    pc_protocol.o(.text) refers to usbd_cdc_vcp.o(.text) for VCP_DataTx
    pc_protocol.o(.text) refers to rt_memcpy_v6.o(.text) for __aeabi_memcpy
    pc_protocol.o(.text) refers to servo_protocol.o(.text) for servoSendHandValue
    pc_protocol.o(.text) refers to delay.o(.text) for delay_ms
    pc_protocol.o(.text) refers to xmodem_hw.o(.text) for xm_timer_start
    pc_protocol.o(.text) refers to servo_protocol.o(.data) for servoState
    pc_protocol.o(.text) refers to servo_protocol.o(.bss) for servoAngle
    pc_protocol.o(.text) refers to pc_protocol.o(.bss) for rev
    pc_protocol.o(.text) refers to pc_protocol.o(.data) for length
    servo_protocol.o(.text) refers to usart.o(.text) for USART1_HalfDuplexInit
    servo_protocol.o(.text) refers to rt_memclr_w.o(.text) for __aeabi_memclr4
    servo_protocol.o(.text) refers to util.o(.text) for checkSum
    servo_protocol.o(.text) refers to servo_protocol.o(.data) for rev
    servo_protocol.o(.text) refers to servo_protocol.o(.bss) for servoAngle
    mp3_player.o(.text) refers to bsp_dma.o(.text) for BSP_DMA_Init
    mp3_player.o(.text) refers to bsp_dac.o(.text) for BSP_DAC_Init
    mp3_player.o(.text) refers to timer.o(.text) for TIM6_Init
    mp3_player.o(.text) refers to stm32f2xx_dma.o(.text) for DMA_ClearFlag
    mp3_player.o(.text) refers to ff.o(.text) for f_open
    mp3_player.o(.text) refers to mp3dec.o(.text) for MP3InitDecoder
    mp3_player.o(.text) refers to rt_memcpy_v6.o(.text) for __aeabi_memcpy
    mp3_player.o(.text) refers to stm32f2xx_rcc.o(.text) for RCC_AHB1PeriphClockCmd
    mp3_player.o(.text) refers to stm32f2xx_gpio.o(.text) for GPIO_Init
    mp3_player.o(.text) refers to mp3_player.o(.bss) for in_buffer
    bsp.o(.text) refers to stm32f2xx_rcc.o(.text) for RCC_AHB1PeriphClockCmd
    bsp.o(.text) refers to stm32f2xx_gpio.o(.text) for GPIO_Init
    bsp.o(.text) refers to os_cpu_c.o(.text) for OS_CPU_SysTickInit
    bsp.o(.text) refers to cpu_core.o(.text) for CPU_TS_TmrFreqSet
    bsp.o(.text) refers to os_cfg_app.o(.constdata) for OSCfg_TickRate_Hz
    bsp_int.o(.text) refers to cpu_c.o(.text) for CPU_IntSrcDis
    bsp_int.o(.text) refers to cpu_a.o(.text) for CPU_IntDis
    bsp_int.o(.text) refers to os_core.o(.text) for OSIntEnter
    bsp_int.o(.text) refers to bsp_int.o(.bss) for BSP_IntVectTbl
    bsp_ser.o(.text) refers to stm32f2xx_usart.o(.text) for USART_ReceiveData
    bsp_ser.o(.text) refers to bsp_os.o(.text) for BSP_OS_SemPost
    bsp_ser.o(.text) refers to stm32f2xx_rcc.o(.text) for RCC_AHB1PeriphClockCmd
    bsp_ser.o(.text) refers to stm32f2xx_gpio.o(.text) for GPIO_Init
    bsp_ser.o(.text) refers to bsp_int.o(.text) for BSP_IntVectSet
    bsp_ser.o(.text) refers to c89vsnprintf.o(.text) for __c89vsnprintf
    bsp_ser.o(.text) refers to lib_ascii.o(.text) for ASCII_IsPrint
    bsp_ser.o(.text) refers to bsp_ser.o(.data) for BSP_SerRxData
    bsp_ser.o(.text) refers to bsp_ser.o(.bss) for BSP_SerRxWait
    bsp_os.o(.text) refers to os_sem.o(.text) for OSSemCreate
    bsp_os.o(.text) refers to os_time.o(.text) for OSTimeDlyHMSM
    bsp_os.o(.text) refers to os_cfg_app.o(.constdata) for OSCfg_TickRate_Hz
    bsp_sdio.o(.text) refers to stm32f2xx_sdio.o(.text) for SDIO_SendCommand
    bsp_sdio.o(.text) refers to stm32f2xx_rcc.o(.text) for RCC_AHB1PeriphClockCmd
    bsp_sdio.o(.text) refers to stm32f2xx_gpio.o(.text) for GPIO_Init
    bsp_sdio.o(.text) refers to bsp_sdio.o(.bss) for SDIO_CmdInitStructure
    bsp_sdio.o(.text) refers to bsp_os.o(.text) for BSP_OS_SemWait
    bsp_sdio.o(.text) refers to bsp_sdio.o(.data) for card_capacity
    cstartup.o(STACK) refers (Special) to heapauxi.o(.text) for __use_two_region_memory
    cstartup.o(HEAP) refers (Special) to heapauxi.o(.text) for __use_two_region_memory
    cstartup.o(RESET) refers (Special) to heapauxi.o(.text) for __use_two_region_memory
    cstartup.o(RESET) refers to cstartup.o(STACK) for __initial_sp
    cstartup.o(RESET) refers to cstartup.o(.text) for Reset_Handler
    cstartup.o(RESET) refers to os_cpu_a.o(CODE) for OS_CPU_PendSVHandler
    cstartup.o(RESET) refers to os_cpu_c.o(.text) for OS_CPU_SysTickHandler
    cstartup.o(RESET) refers to bsp_int.o(.text) for BSP_IntHandlerWWDG
    cstartup.o(.text) refers (Special) to heapauxi.o(.text) for __use_two_region_memory
    cstartup.o(.text) refers to system_stm32f2xx.o(.text) for SystemInit
    cstartup.o(.text) refers to __main.o(!!!main) for __main
    cstartup.o(.text) refers to cstartup.o(HEAP) for Heap_Mem
    cstartup.o(.text) refers to cstartup.o(STACK) for Stack_Mem
    gpio.o(.text) refers to stm32f2xx_gpio.o(.text) for GPIO_Init
    timer.o(.text) refers to stm32f2xx_rcc.o(.text) for RCC_APB1PeriphClockCmd
    timer.o(.text) refers to stm32f2xx_tim.o(.text) for TIM_DeInit
    timer.o(.text) refers to util.o(.text) for NVIC_Config
    timer.o(.text) refers to timer.o(.data) for TIM7_Handler
    usart.o(.text) refers to stm32f2xx_rcc.o(.text) for RCC_APB2PeriphClockCmd
    usart.o(.text) refers to gpio.o(.text) for GPIO_AfPpUpOut
    usart.o(.text) refers to stm32f2xx_gpio.o(.text) for GPIO_PinAFConfig
    usart.o(.text) refers to stm32f2xx_usart.o(.text) for USART_Init
    usart.o(.text) refers to util.o(.text) for NVIC_Config
    usart.o(.text) refers to usart.o(.data) for USART1_Handler
    util.o(.text) refers to system_stm32f2xx.o(.text) for SystemCoreClockUpdate
    util.o(.text) refers to stm32f2xx_rcc.o(.text) for RCC_GetClocksFreq
    util.o(.text) refers to misc.o(.text) for NVIC_PriorityGroupConfig
    bsp_dac.o(.text) refers to stm32f2xx_rcc.o(.text) for RCC_AHB1PeriphClockCmd
    bsp_dac.o(.text) refers to stm32f2xx_gpio.o(.text) for GPIO_Init
    bsp_dac.o(.text) refers to stm32f2xx_dac.o(.text) for DAC_DeInit
    bsp_dma.o(.text) refers to stm32f2xx_rcc.o(.text) for RCC_AHB1PeriphClockCmd
    bsp_dma.o(.text) refers to stm32f2xx_dma.o(.text) for DMA_DeInit
    stm32f2xx_adc.o(.text) refers to stm32f2xx_rcc.o(.text) for RCC_APB2PeriphResetCmd
    stm32f2xx_can.o(.text) refers to stm32f2xx_rcc.o(.text) for RCC_APB1PeriphResetCmd
    stm32f2xx_cryp.o(.text) refers to stm32f2xx_rcc.o(.text) for RCC_AHB2PeriphResetCmd
    stm32f2xx_cryp_aes.o(.text) refers to stm32f2xx_cryp.o(.text) for CRYP_KeyStructInit
    stm32f2xx_cryp_des.o(.text) refers to stm32f2xx_cryp.o(.text) for CRYP_KeyStructInit
    stm32f2xx_cryp_tdes.o(.text) refers to stm32f2xx_cryp.o(.text) for CRYP_KeyStructInit
    stm32f2xx_dac.o(.text) refers to stm32f2xx_rcc.o(.text) for RCC_APB1PeriphResetCmd
    stm32f2xx_gpio.o(.text) refers to stm32f2xx_rcc.o(.text) for RCC_AHB1PeriphResetCmd
    stm32f2xx_hash.o(.text) refers to stm32f2xx_rcc.o(.text) for RCC_AHB2PeriphResetCmd
    stm32f2xx_hash_md5.o(.text) refers to stm32f2xx_hash.o(.text) for HASH_DeInit
    stm32f2xx_hash_sha1.o(.text) refers to stm32f2xx_hash.o(.text) for HASH_DeInit
    stm32f2xx_i2c.o(.text) refers to stm32f2xx_rcc.o(.text) for RCC_APB1PeriphResetCmd
    stm32f2xx_pwr.o(.text) refers to stm32f2xx_rcc.o(.text) for RCC_APB1PeriphResetCmd
    stm32f2xx_rcc.o(.text) refers to stm32f2xx_rcc.o(.data) for APBAHBPrescTable
    stm32f2xx_rng.o(.text) refers to stm32f2xx_rcc.o(.text) for RCC_AHB2PeriphResetCmd
    stm32f2xx_sdio.o(.text) refers to stm32f2xx_rcc.o(.text) for RCC_APB2PeriphResetCmd
    stm32f2xx_spi.o(.text) refers to stm32f2xx_rcc.o(.text) for RCC_APB2PeriphResetCmd
    stm32f2xx_syscfg.o(.text) refers to stm32f2xx_rcc.o(.text) for RCC_APB2PeriphResetCmd
    stm32f2xx_tim.o(.text) refers to stm32f2xx_rcc.o(.text) for RCC_APB2PeriphResetCmd
    stm32f2xx_usart.o(.text) refers to stm32f2xx_rcc.o(.text) for RCC_APB2PeriphResetCmd
    stm32f2xx_wwdg.o(.text) refers to stm32f2xx_rcc.o(.text) for RCC_APB1PeriphResetCmd
    lib_math.o(.text) refers to cpu_a.o(.text) for CPU_SR_Save
    lib_math.o(.text) refers to lib_math.o(.data) for Math_RandSeedCur
    lib_mem.o(.text) refers to lib_mem_a.o(.text) for Mem_Copy
    lib_mem.o(.text) refers to cpu_core.o(.text) for CPU_SW_Exception
    lib_mem.o(.text) refers to cpu_a.o(.text) for CPU_SR_Save
    lib_mem.o(.text) refers to lib_mem.o(.bss) for Mem_PoolHeap
    lib_mem.o(.text) refers to lib_mem.o(.data) for Mem_PoolTbl
    lib_str.o(.text) refers to lib_ascii.o(.text) for ASCII_ToLower
    lib_str.o(.text) refers to lib_str.o(.constdata) for Str_MultOvfThTbl_Int32U
    cpu_core.o(.text) refers to cpu_a.o(.text) for CPU_SR_Save
    cpu_core.o(.text) refers to lib_mem.o(.text) for Mem_Clr
    cpu_core.o(.text) refers to bsp.o(.text) for CPU_TS_TmrInit
    cpu_core.o(.text) refers to lib_str.o(.text) for Str_Copy_N
    cpu_core.o(.text) refers to cpu_core.o(.bss) for CPU_Name
    cpu_core.o(.text) refers to cpu_core.o(.data) for CPU_TS_TmrFreq_Hz
    cpu_core.o(.text) refers to cpu_core.o(.constdata) for CPU_CntLeadZerosTbl
    cpu_c.o(.text) refers to cpu_a.o(.text) for CPU_SR_Save
    os_cpu_a.o(CODE) refers (Special) to os_core.o(.text) for OSIntExit
    os_cpu_a.o(CODE) refers (Special) to os_var.o(.data) for OSRunning
    os_cpu_a.o(CODE) refers to os_cpu_c.o(.data) for OS_CPU_ExceptStkBase
    os_cpu_a.o(CODE) refers to os_cpu_c.o(.text) for OSTaskSwHook
    os_cpu_c.o(.text) refers to bsp.o(.text) for CPU_TS_TmrRd
    os_cpu_c.o(.text) refers to cpu_a.o(.text) for CPU_SR_Save
    os_cpu_c.o(.text) refers to os_time.o(.text) for OSTimeTick
    os_cpu_c.o(.text) refers to os_core.o(.text) for OSIntExit
    os_cpu_c.o(.text) refers to os_var.o(.data) for OS_AppIdleTaskHookPtr
    os_cpu_c.o(.text) refers to os_cfg_app.o(.constdata) for OSCfg_ISRStkBasePtr
    os_cpu_c.o(.text) refers to os_cpu_c.o(.data) for OS_CPU_ExceptStkBase
    os_cpu_c.o(.text) refers to os_task.o(.text) for OS_TaskReturn
    os_cfg_app.o(.constdata) refers to os_cfg_app.o(.bss) for OSCfg_IdleTaskStk
    os_core.o(.text) refers to cpu_a.o(.text) for CPU_SR_Save
    os_core.o(.text) refers to os_cpu_c.o(.text) for OSIdleTaskHook
    os_core.o(.text) refers to os_task.o(.text) for OSTaskCreate
    os_core.o(.text) refers to os_prio.o(.text) for OS_PrioInit
    os_core.o(.text) refers to os_flag.o(.text) for OS_FlagInit
    os_core.o(.text) refers to os_mem.o(.text) for OS_MemInit
    os_core.o(.text) refers to os_msg.o(.text) for OS_MsgPoolInit
    os_core.o(.text) refers to os_mutex.o(.text) for OS_MutexInit
    os_core.o(.text) refers to os_q.o(.text) for OS_QInit
    os_core.o(.text) refers to os_sem.o(.text) for OS_SemInit
    os_core.o(.text) refers to os_tick.o(.text) for OS_TickTaskInit
    os_core.o(.text) refers to os_stat.o(.text) for OS_StatTaskInit
    os_core.o(.text) refers to os_tmr.o(.text) for OS_TmrInit
    os_core.o(.text) refers to os_dbg.o(.text) for OS_Dbg_Init
    os_core.o(.text) refers to os_cfg_app.o(.text) for OSCfg_Init
    os_core.o(.text) refers to bsp.o(.text) for CPU_TS_TmrRd
    os_core.o(.text) refers to os_var.o(.data) for OSIdleTaskCtr
    os_core.o(.text) refers to os_cfg_app.o(.constdata) for OSCfg_IdleTaskStkSize
    os_core.o(.text) refers to os_var.o(.bss) for OSIdleTaskTCB
    os_core.o(.text) refers to os_cpu_a.o(CODE) for OSStartHighRdy
    os_dbg.o(.text) refers to os_dbg.o(.constdata) for OSDbg_DbgEn
    os_flag.o(.text) refers to cpu_a.o(.text) for CPU_SR_Save
    os_flag.o(.text) refers to os_core.o(.text) for OS_PendListInit
    os_flag.o(.text) refers to os_var.o(.data) for OSFlagDbgListPtr
    os_flag.o(.text) refers to bsp.o(.text) for CPU_TS_TmrRd
    os_mem.o(.text) refers to cpu_a.o(.text) for CPU_SR_Save
    os_mem.o(.text) refers to os_var.o(.data) for OSMemDbgListPtr
    os_msg.o(.text) refers to os_cfg_app.o(.constdata) for OSCfg_MsgPoolBasePtr
    os_msg.o(.text) refers to os_var.o(.bss) for OSMsgPool
    os_mutex.o(.text) refers to cpu_a.o(.text) for CPU_SR_Save
    os_mutex.o(.text) refers to os_core.o(.text) for OS_PendListInit
    os_mutex.o(.text) refers to os_prio.o(.text) for OS_PrioInsert
    os_mutex.o(.text) refers to bsp.o(.text) for CPU_TS_TmrRd
    os_mutex.o(.text) refers to os_var.o(.data) for OSMutexDbgListPtr
    os_pend_multi.o(.text) refers to os_core.o(.text) for OS_TaskBlock
    os_pend_multi.o(.text) refers to os_msg.o(.text) for OS_MsgQGet
    os_pend_multi.o(.text) refers to cpu_a.o(.text) for CPU_SR_Save
    os_pend_multi.o(.text) refers to os_var.o(.data) for OSTCBCurPtr
    os_prio.o(.text) refers to cpu_a.o(.text) for CPU_CntLeadZeros
    os_prio.o(.text) refers to os_prio.o(.data) for OSPrioTbl
    os_q.o(.text) refers to cpu_a.o(.text) for CPU_SR_Save
    os_q.o(.text) refers to os_msg.o(.text) for OS_MsgQInit
    os_q.o(.text) refers to os_core.o(.text) for OS_PendListInit
    os_q.o(.text) refers to bsp.o(.text) for CPU_TS_TmrRd
    os_q.o(.text) refers to os_var.o(.data) for OSQDbgListPtr
    os_sem.o(.text) refers to cpu_a.o(.text) for CPU_SR_Save
    os_sem.o(.text) refers to os_core.o(.text) for OS_PendListInit
    os_sem.o(.text) refers to bsp.o(.text) for CPU_TS_TmrRd
    os_sem.o(.text) refers to os_var.o(.data) for OSSemDbgListPtr
    os_stat.o(.text) refers to cpu_a.o(.text) for CPU_SR_Save
    os_stat.o(.text) refers to bsp.o(.text) for CPU_TS_TmrRd
    os_stat.o(.text) refers to os_tick.o(.text) for OS_TickListResetPeak
    os_stat.o(.text) refers to os_tmr.o(.text) for OS_TmrResetPeak
    os_stat.o(.text) refers to os_task.o(.text) for OSTaskSuspend
    os_stat.o(.text) refers to os_time.o(.text) for OSTimeDly
    os_stat.o(.text) refers to os_cpu_c.o(.text) for OSStatTaskHook
    os_stat.o(.text) refers to os_var.o(.data) for OSStatTaskCPUUsageMax
    os_stat.o(.text) refers to os_var.o(.bss) for OSMsgPool
    os_stat.o(.text) refers to os_cfg_app.o(.constdata) for OSCfg_TickRate_Hz
    os_task.o(.text) refers to cpu_a.o(.text) for CPU_SR_Save
    os_task.o(.text) refers to os_core.o(.text) for OS_RdyListRemove
    os_task.o(.text) refers to os_prio.o(.text) for OS_PrioInsert
    os_task.o(.text) refers to os_msg.o(.text) for OS_MsgQInit
    os_task.o(.text) refers to bsp.o(.text) for CPU_TS_TmrRd
    os_task.o(.text) refers to os_cpu_c.o(.text) for OSTaskStkInit
    os_task.o(.text) refers to os_var.o(.data) for OSIntNestingCtr
    os_task.o(.text) refers to os_cfg_app.o(.constdata) for OSCfg_StkSizeMin
    os_task.o(.text) refers to os_var.o(.bss) for OSIdleTaskTCB
    os_task.o(.text) refers to os_time.o(.text) for OSTimeDly
    os_tick.o(.text) refers to cpu_a.o(.text) for CPU_SR_Save
    os_tick.o(.text) refers to bsp.o(.text) for CPU_TS_TmrRd
    os_tick.o(.text) refers to os_core.o(.text) for OS_TaskRdy
    os_tick.o(.text) refers to os_task.o(.text) for OSTaskSemPend
    os_tick.o(.text) refers to os_var.o(.data) for OSTickCtr
    os_tick.o(.text) refers to os_cfg_app.o(.constdata) for OSCfg_TickWheelSize
    os_tick.o(.text) refers to os_cfg_app.o(.bss) for OSCfg_TickWheel
    os_tick.o(.text) refers to os_var.o(.bss) for OSTickTaskTCB
    os_time.o(.text) refers to cpu_a.o(.text) for CPU_SR_Save
    os_time.o(.text) refers to os_tick.o(.text) for OS_TickListInsert
    os_time.o(.text) refers to os_core.o(.text) for OS_RdyListRemove
    os_time.o(.text) refers to os_cpu_c.o(.text) for OSTimeTickHook
    os_time.o(.text) refers to os_task.o(.text) for OSTaskSemPost
    os_time.o(.text) refers to os_var.o(.data) for OSIntNestingCtr
    os_time.o(.text) refers to os_cfg_app.o(.constdata) for OSCfg_TickRate_Hz
    os_time.o(.text) refers to os_var.o(.bss) for OSTickTaskTCB
    os_tmr.o(.text) refers to cpu_a.o(.text) for CPU_SR_Save
    os_tmr.o(.text) refers to os_core.o(.text) for OSSchedLock
    os_tmr.o(.text) refers to os_var.o(.data) for OSTmrDbgListPtr
    os_tmr.o(.text) refers to os_cfg_app.o(.constdata) for OSCfg_TmrWheelSize
    os_tmr.o(.text) refers to os_cfg_app.o(.bss) for OSCfg_TmrWheel
    os_tmr.o(.text) refers to os_task.o(.text) for OSTaskSemPend
    os_tmr.o(.text) refers to bsp.o(.text) for CPU_TS_TmrRd
    os_tmr.o(.text) refers to os_var.o(.bss) for OSTmrTaskTCB
    diskio.o(.text) refers to bsp_sdio.o(.text) for BSP_SD_Init
    diskio.o(.text) refers to diskio.o(.data) for Stat
    ff.o(.text) refers to diskio.o(.text) for disk_write
    ff.o(.text) refers to ccsbcs.o(.text) for ff_wtoupper
    ff.o(.text) refers to ff.o(.constdata) for LfnOfs
    ff.o(.text) refers to ff.o(.data) for FatFs
    ccsbcs.o(.text) refers to ccsbcs.o(.constdata) for Tbl
    system_stm32f2xx.o(.text) refers to system_stm32f2xx.o(.data) for SystemCoreClock
    usbd_core.o(.text) refers to usb_bsp.o(.text) for USB_OTG_BSP_Init
    usbd_core.o(.text) refers to usb_dcd.o(.text) for DCD_Init
    usbd_core.o(.text) refers to usbd_req.o(.text) for USBD_ParseSetupRequest
    usbd_core.o(.text) refers to usbd_ioreq.o(.text) for USBD_CtlContinueRx
    usbd_core.o(.text) refers to usbd_core.o(.data) for SET_TEST_MODE
    usbd_core.o(.data) refers to usbd_core.o(.text) for USBD_DataOutStage
    usbd_ioreq.o(.text) refers to usb_dcd.o(.text) for DCD_EP_Tx
    usbd_ioreq.o(.text) refers to usb_core.o(.text) for USB_OTG_EP0_OutStart
    usbd_req.o(.text) refers to usb_dcd.o(.text) for DCD_EP_Stall
    usbd_req.o(.text) refers to usb_core.o(.text) for USB_OTG_EP0_OutStart
    usbd_req.o(.text) refers to usbd_ioreq.o(.text) for USBD_CtlSendStatus
    usbd_req.o(.text) refers to usbd_core.o(.text) for USBD_SetCfg
    usbd_req.o(.text) refers to usbd_core.o(.data) for SET_TEST_MODE
    usbd_req.o(.text) refers to usbd_req.o(.data) for USBD_cfg_status
    usbd_cdc_core.o(.text) refers to usb_dcd.o(.text) for DCD_EP_Open
    usbd_cdc_core.o(.text) refers to usbd_ioreq.o(.text) for USBD_CtlSendData
    usbd_cdc_core.o(.text) refers to usbd_req.o(.text) for USBD_CtlError
    usbd_cdc_core.o(.text) refers to usbd_desc.o(.data) for USBD_DeviceDesc
    usbd_cdc_core.o(.text) refers to usbd_cdc_vcp.o(.data) for VCP_fops
    usbd_cdc_core.o(.text) refers to usbd_cdc_core.o(.bss) for USB_Rx_Buffer
    usbd_cdc_core.o(.text) refers to usbd_cdc_core.o(.data) for usbd_cdc_CfgDesc
    usbd_cdc_core.o(.data) refers to usbd_cdc_core.o(.text) for usbd_cdc_Init
    usb_core.o(.text) refers to usb_bsp.o(.text) for USB_OTG_BSP_uDelay
    usb_dcd.o(.text) refers to usb_core.o(.text) for USB_OTG_SelectCore
    usb_dcd.o(.text) refers to usb_bsp.o(.text) for USB_OTG_BSP_mDelay
    usb_dcd_int.o(.text) refers to usb_core.o(.text) for USB_OTG_EP0Activate
    usb_dcd_int.o(.text) refers to usbd_core.o(.data) for USBD_DCD_INT_fops
    usb_bsp.o(.text) refers to stm32f2xx_rcc.o(.text) for RCC_AHB1PeriphClockCmd
    usb_bsp.o(.text) refers to stm32f2xx_gpio.o(.text) for GPIO_Init
    usb_bsp.o(.text) refers to util.o(.text) for NVIC_Config
    usb_bsp.o(.text) refers to usb_delay.o(.text) for usb_delay_us
    usbd_cdc_vcp.o(.text) refers to pc_protocol.o(.text) for VCP_DataHandler
    usbd_cdc_vcp.o(.text) refers to usbd_cdc_vcp.o(.data) for linecoding
    usbd_cdc_vcp.o(.text) refers to usbd_cdc_core.o(.bss) for APP_Rx_Buffer
    usbd_cdc_vcp.o(.text) refers to usbd_cdc_core.o(.data) for APP_Rx_ptr_in
    usbd_cdc_vcp.o(.data) refers to usbd_cdc_vcp.o(.text) for VCP_Init
    usbd_desc.o(.text) refers to usbd_req.o(.text) for USBD_GetString
    usbd_desc.o(.text) refers to usbd_desc.o(.data) for USBD_DeviceDesc
    usbd_desc.o(.text) refers to usbd_req.o(.bss) for USBD_StrDesc
    usbd_desc.o(.data) refers to usbd_desc.o(.text) for USBD_USR_DeviceDescriptor
    usbd_usr.o(.data) refers to usbd_usr.o(.text) for USBD_USR_Init
    crc16.o(.text) refers to crc16.o(.constdata) for xm_crc16tab
    xmodem.o(.text) refers to xmodem_hw.o(.text) for xm_port_write
    xmodem.o(.text) refers to crc16.o(.text) for xm_crc16_ccitt
    xmodem.o(.text) refers to xmodem.o(.data) for last_error
    xmodem.o(.text) refers to xmodem.o(.bss) for xm_buf
    xmodem_hw.o(.text) refers to _printf_percent.o(.ARM.Collect$$_printf_percent$$00000000) for _printf_percent
    xmodem_hw.o(.text) refers to _printf_d.o(.ARM.Collect$$_printf_percent$$00000009) for _printf_d
    xmodem_hw.o(.text) refers to _printf_dec.o(.text) for _printf_int_dec
    xmodem_hw.o(.text) refers to timer.o(.text) for TIM7_Stop
    xmodem_hw.o(.text) refers to usart.o(.text) for UART4_Init
    xmodem_hw.o(.text) refers to __2printf.o(.text) for __2printf
    xmodem_hw.o(.text) refers to xmodem_hw.o(.data) for timeOutFlag
    mp3dec.o(.text) refers to buffers.o(.text) for xmp3_AllocateBuffers
    mp3dec.o(.text) refers to bitstream.o(.text) for xmp3_UnpackFrameHeader
    mp3dec.o(.text) refers to rt_memmove_v6.o(.text) for __aeabi_memmove
    mp3dec.o(.text) refers to rt_memcpy_v6.o(.text) for __aeabi_memcpy
    mp3dec.o(.text) refers to scalfact.o(.text) for xmp3_UnpackScaleFactors
    mp3dec.o(.text) refers to huffman.o(.text) for xmp3_DecodeHuffman
    mp3dec.o(.text) refers to dequant.o(.text) for xmp3_Dequantize
    mp3dec.o(.text) refers to imdct.o(.text) for xmp3_IMDCT
    mp3dec.o(.text) refers to subband.o(.text) for xmp3_Subband
    mp3dec.o(.text) refers to mp3tabs.o(.constdata) for xmp3_samplesPerFrameTab
    bitstream.o(.text) refers to mp3tabs.o(.constdata) for xmp3_sfBandTable
    buffers.o(.text) refers to buffers.o(.bss) for mp3DecInfo
    dct32.o(.text) refers to asmmisc.o(.text) for xmp3_MULSHIFT32
    dct32.o(.text) refers to dct32.o(.constdata) for dcttab
    dequant.o(.text) refers to dqchan.o(.text) for xmp3_DequantChannel
    dequant.o(.text) refers to stproc.o(.text) for xmp3_MidSideProc
    dqchan.o(.text) refers to asmmisc.o(.text) for xmp3_MULSHIFT32
    dqchan.o(.text) refers to dqchan.o(.constdata) for pow43_14
    huffman.o(.text) refers to hufftabs.o(.constdata) for xmp3_huffTabOffset
    imdct.o(.text) refers to asmmisc.o(.text) for xmp3_MULSHIFT32
    imdct.o(.text) refers to trigtabs.o(.constdata) for xmp3_csa
    imdct.o(.text) refers to imdct.o(.constdata) for c18
    scalfact.o(.text) refers to bitstream.o(.text) for xmp3_GetBits
    scalfact.o(.text) refers to scalfact.o(.constdata) for SFLenTab
    stproc.o(.text) refers to asmmisc.o(.text) for xmp3_FASTABS
    stproc.o(.text) refers to trigtabs.o(.constdata) for xmp3_ISFMpeg1
    subband.o(.text) refers to dct32.o(.text) for xmp3_FDCT32
    subband.o(.text) refers to asmpoly_thumb2.o(.text) for xmp3_PolyphaseStereo
    subband.o(.text) refers to trigtabs.o(.constdata) for xmp3_polyCoef
    c89vsnprintf.o(.text) refers (Special) to _printf_a.o(.ARM.Collect$$_printf_percent$$00000006) for _printf_a
    c89vsnprintf.o(.text) refers (Special) to _printf_c.o(.ARM.Collect$$_printf_percent$$00000013) for _printf_c
    c89vsnprintf.o(.text) refers (Special) to _printf_charcount.o(.text) for _printf_charcount
    c89vsnprintf.o(.text) refers (Special) to _printf_d.o(.ARM.Collect$$_printf_percent$$00000009) for _printf_d
    c89vsnprintf.o(.text) refers (Special) to _printf_e.o(.ARM.Collect$$_printf_percent$$00000004) for _printf_e
    c89vsnprintf.o(.text) refers (Special) to _printf_f.o(.ARM.Collect$$_printf_percent$$00000003) for _printf_f
    c89vsnprintf.o(.text) refers (Special) to printf1.o(x$fpl$printf1) for _printf_fp_dec
    c89vsnprintf.o(.text) refers (Special) to _printf_g.o(.ARM.Collect$$_printf_percent$$00000005) for _printf_g
    c89vsnprintf.o(.text) refers (Special) to _printf_i.o(.ARM.Collect$$_printf_percent$$00000008) for _printf_i
    c89vsnprintf.o(.text) refers (Special) to _printf_dec.o(.text) for _printf_int_dec
    c89vsnprintf.o(.text) refers (Special) to _printf_l.o(.ARM.Collect$$_printf_percent$$00000012) for _printf_l
    c89vsnprintf.o(.text) refers (Special) to _printf_lc.o(.ARM.Collect$$_printf_percent$$00000015) for _printf_lc
    c89vsnprintf.o(.text) refers (Special) to _printf_ll.o(.ARM.Collect$$_printf_percent$$00000007) for _printf_ll
    c89vsnprintf.o(.text) refers (Special) to _printf_lld.o(.ARM.Collect$$_printf_percent$$0000000E) for _printf_lld
    c89vsnprintf.o(.text) refers (Special) to _printf_lli.o(.ARM.Collect$$_printf_percent$$0000000D) for _printf_lli
    c89vsnprintf.o(.text) refers (Special) to _printf_llo.o(.ARM.Collect$$_printf_percent$$00000010) for _printf_llo
    c89vsnprintf.o(.text) refers (Special) to _printf_llu.o(.ARM.Collect$$_printf_percent$$0000000F) for _printf_llu
    c89vsnprintf.o(.text) refers (Special) to _printf_llx.o(.ARM.Collect$$_printf_percent$$00000011) for _printf_llx
    c89vsnprintf.o(.text) refers (Special) to _printf_longlong_dec.o(.text) for _printf_longlong_dec
    c89vsnprintf.o(.text) refers (Special) to _printf_hex_int_ll_ptr.o(.text) for _printf_longlong_hex
    c89vsnprintf.o(.text) refers (Special) to _printf_oct_int_ll.o(.text) for _printf_longlong_oct
    c89vsnprintf.o(.text) refers (Special) to _printf_ls.o(.ARM.Collect$$_printf_percent$$00000016) for _printf_ls
    c89vsnprintf.o(.text) refers (Special) to _printf_n.o(.ARM.Collect$$_printf_percent$$00000001) for _printf_n
    c89vsnprintf.o(.text) refers (Special) to _printf_o.o(.ARM.Collect$$_printf_percent$$0000000B) for _printf_o
    c89vsnprintf.o(.text) refers (Special) to _printf_p.o(.ARM.Collect$$_printf_percent$$00000002) for _printf_p
    c89vsnprintf.o(.text) refers (Special) to _printf_percent.o(.ARM.Collect$$_printf_percent$$00000000) for _printf_percent
    c89vsnprintf.o(.text) refers (Special) to _printf_pad.o(.text) for _printf_post_padding
    c89vsnprintf.o(.text) refers (Special) to _printf_s.o(.ARM.Collect$$_printf_percent$$00000014) for _printf_s
    c89vsnprintf.o(.text) refers (Special) to _printf_str.o(.text) for _printf_str
    c89vsnprintf.o(.text) refers (Special) to _printf_truncate.o(.text) for _printf_truncate_signed
    c89vsnprintf.o(.text) refers (Special) to _printf_u.o(.ARM.Collect$$_printf_percent$$0000000A) for _printf_u
    c89vsnprintf.o(.text) refers (Special) to _printf_wctomb.o(.text) for _printf_wctomb
    c89vsnprintf.o(.text) refers (Special) to _printf_x.o(.ARM.Collect$$_printf_percent$$0000000C) for _printf_x
    c89vsnprintf.o(.text) refers to _printf_char_common.o(.text) for _printf_char_common
    c89vsnprintf.o(.text) refers to _sputc.o(.text) for _sputc
    c89vsnprintf.o(.text) refers to _snputc.o(.text) for _snputc
    __2printf.o(.text) refers to _printf_char_file.o(.text) for _printf_char_file
    __2printf.o(.text) refers to stdio_streams.o(.bss) for __stdout
    noretval__2printf.o(.text) refers to _printf_char_file.o(.text) for _printf_char_file
    noretval__2printf.o(.text) refers to stdio_streams.o(.bss) for __stdout
    __printf.o(.text) refers to _printf_percent.o(.ARM.Collect$$_printf_percent$$00000000) for _printf_percent
    _printf_dec.o(.text) refers (Weak) to _printf_truncate.o(.text) for _printf_truncate_signed
    _printf_dec.o(.text) refers (Weak) to _printf_truncate.o(.text) for _printf_truncate_unsigned
    _printf_dec.o(.text) refers to _printf_intcommon.o(.text) for _printf_int_common
    __printf_flags.o(.text) refers to _printf_percent.o(.ARM.Collect$$_printf_percent$$00000000) for _printf_percent
    __printf_flags.o(.text) refers to __printf_flags.o(.constdata) for .constdata
    __printf_ss.o(.text) refers to _printf_percent.o(.ARM.Collect$$_printf_percent$$00000000) for _printf_percent
    __printf_flags_ss.o(.text) refers to _printf_percent.o(.ARM.Collect$$_printf_percent$$00000000) for _printf_percent
    __printf_flags_ss.o(.text) refers to __printf_flags_ss.o(.constdata) for .constdata
    __printf_wp.o(.text) refers to __printf_wp.o(i._is_digit) for _is_digit
    __printf_wp.o(.text) refers to _printf_percent.o(.ARM.Collect$$_printf_percent$$00000000) for _printf_percent
    __printf_flags_wp.o(.text) refers to __printf_wp.o(i._is_digit) for _is_digit
    __printf_flags_wp.o(.text) refers to _printf_percent.o(.ARM.Collect$$_printf_percent$$00000000) for _printf_percent
    __printf_flags_wp.o(.text) refers to __printf_flags_wp.o(.constdata) for .constdata
    __printf_ss_wp.o(.text) refers to __printf_wp.o(i._is_digit) for _is_digit
    __printf_ss_wp.o(.text) refers to _printf_percent.o(.ARM.Collect$$_printf_percent$$00000000) for _printf_percent
    __printf_flags_ss_wp.o(.text) refers to __printf_wp.o(i._is_digit) for _is_digit
    __printf_flags_ss_wp.o(.text) refers to _printf_percent.o(.ARM.Collect$$_printf_percent$$00000000) for _printf_percent
    __printf_flags_ss_wp.o(.text) refers to __printf_flags_ss_wp.o(.constdata) for .constdata
    _printf_d.o(.ARM.Collect$$_printf_percent$$00000009) refers (Weak) to _printf_dec.o(.text) for _printf_int_dec
    _printf_percent.o(.ARM.Collect$$_printf_percent$$00000000) refers (Special) to _printf_percent_end.o(.ARM.Collect$$_printf_percent$$00000017) for _printf_percent_end
    rt_memcpy_v6.o(.text) refers to rt_memcpy_w.o(.text) for __aeabi_memcpy4
    rt_memmove_v6.o(.text) refers to rt_memcpy_v6.o(.text) for __aeabi_memcpy
    rt_memmove_v6.o(.text) refers to rt_memmove_w.o(.text) for __memmove_aligned
    __main.o(!!!main) refers to __rtentry.o(.ARM.Collect$$rtentry$$00000000) for __rt_entry
    __rtentry.o(.ARM.Collect$$rtentry$$00000000) refers (Special) to __rtentry2.o(.ARM.Collect$$rtentry$$0000000A) for __rt_entry_li
    __rtentry.o(.ARM.Collect$$rtentry$$00000000) refers (Special) to __rtentry2.o(.ARM.Collect$$rtentry$$0000000D) for __rt_entry_main
    __rtentry.o(.ARM.Collect$$rtentry$$00000000) refers (Special) to __rtentry2.o(.ARM.Collect$$rtentry$$0000000C) for __rt_entry_postli_1
    __rtentry.o(.ARM.Collect$$rtentry$$00000000) refers (Special) to __rtentry2.o(.ARM.Collect$$rtentry$$00000009) for __rt_entry_postsh_1
    __rtentry.o(.ARM.Collect$$rtentry$$00000000) refers (Special) to __rtentry2.o(.ARM.Collect$$rtentry$$00000002) for __rt_entry_presh_1
    __rtentry.o(.ARM.Collect$$rtentry$$00000000) refers (Special) to __rtentry4.o(.ARM.Collect$$rtentry$$00000004) for __rt_entry_sh
    _printf_str.o(.text) refers (Special) to _printf_char.o(.text) for _printf_cs_common
    _printf_str.o(.text) refers (Weak) to _printf_pad.o(.text) for _printf_pre_padding
    _printf_str.o(.text) refers (Weak) to _printf_pad.o(.text) for _printf_post_padding
    _printf_intcommon.o(.text) refers (Weak) to _printf_pad.o(.text) for _printf_pre_padding
    _printf_intcommon.o(.text) refers (Weak) to _printf_pad.o(.text) for _printf_pre_padding
    _printf_intcommon.o(.text) refers (Weak) to _printf_pad.o(.text) for _printf_post_padding
    _printf_char_common.o(.text) refers to __printf_flags_ss_wp.o(.text) for __printf
    _printf_char_file.o(.text) refers to _printf_char_common.o(.text) for _printf_char_common
    _printf_char_file.o(.text) refers to ferror.o(.text) for ferror
    _printf_char_file.o(.text) refers to fputc.o(i.fputc) for fputc
    _printf_wctomb.o(.text) refers (Special) to _printf_wchar.o(.text) for _printf_lcs_common
    _printf_wctomb.o(.text) refers to _wcrtomb.o(.text) for _wcrtomb
    _printf_wctomb.o(.text) refers (Weak) to _printf_pad.o(.text) for _printf_pre_padding
    _printf_wctomb.o(.text) refers (Weak) to _printf_pad.o(.text) for _printf_post_padding
    _printf_wctomb.o(.text) refers to _printf_wctomb.o(.constdata) for .constdata
    _printf_wctomb.o(.constdata) refers (Special) to _printf_wchar.o(.text) for _printf_lcs_common
    _printf_longlong_dec.o(.text) refers to lludiv10.o(.text) for _ll_udiv10
    _printf_longlong_dec.o(.text) refers to _printf_intcommon.o(.text) for _printf_int_common
    _printf_oct_ll.o(.text) refers to _printf_intcommon.o(.text) for _printf_int_common
    _printf_oct_int.o(.text) refers (Weak) to _printf_truncate.o(.text) for _printf_truncate_unsigned
    _printf_oct_int.o(.text) refers to _printf_intcommon.o(.text) for _printf_int_common
    _printf_oct_int_ll.o(.text) refers to _printf_intcommon.o(.text) for _printf_int_common
    _printf_oct_int_ll.o(.text) refers (Weak) to _printf_truncate.o(.text) for _printf_truncate_unsigned
    _printf_hex_ll.o(.text) refers to _printf_intcommon.o(.text) for _printf_int_common
    _printf_hex_ll.o(.text) refers to _printf_hex_ll.o(.constdata) for .constdata
    _printf_hex_int.o(.text) refers (Weak) to _printf_truncate.o(.text) for _printf_truncate_unsigned
    _printf_hex_int.o(.text) refers to _printf_intcommon.o(.text) for _printf_int_common
    _printf_hex_int.o(.text) refers to _printf_hex_int.o(.constdata) for .constdata
    _printf_hex_int_ll.o(.text) refers to _printf_intcommon.o(.text) for _printf_int_common
    _printf_hex_int_ll.o(.text) refers (Weak) to _printf_truncate.o(.text) for _printf_truncate_unsigned
    _printf_hex_int_ll.o(.text) refers to _printf_hex_int_ll.o(.constdata) for .constdata
    _printf_hex_ptr.o(.text) refers to _printf_intcommon.o(.text) for _printf_int_common
    _printf_hex_ptr.o(.text) refers to _printf_hex_ptr.o(.constdata) for .constdata
    _printf_hex_int_ptr.o(.text) refers to _printf_intcommon.o(.text) for _printf_int_common
    _printf_hex_int_ptr.o(.text) refers (Weak) to _printf_truncate.o(.text) for _printf_truncate_unsigned
    _printf_hex_int_ptr.o(.text) refers to _printf_hex_int_ptr.o(.constdata) for .constdata
    _printf_hex_ll_ptr.o(.text) refers to _printf_intcommon.o(.text) for _printf_int_common
    _printf_hex_ll_ptr.o(.text) refers to _printf_hex_ll_ptr.o(.constdata) for .constdata
    _printf_hex_int_ll_ptr.o(.text) refers to _printf_intcommon.o(.text) for _printf_int_common
    _printf_hex_int_ll_ptr.o(.text) refers (Weak) to _printf_truncate.o(.text) for _printf_truncate_unsigned
    _printf_hex_int_ll_ptr.o(.text) refers to _printf_hex_int_ll_ptr.o(.constdata) for .constdata
    _printf_c.o(.ARM.Collect$$_printf_percent$$00000013) refers (Weak) to _printf_char.o(.text) for _printf_char
    _printf_s.o(.ARM.Collect$$_printf_percent$$00000014) refers (Weak) to _printf_char.o(.text) for _printf_string
    _printf_n.o(.ARM.Collect$$_printf_percent$$00000001) refers (Weak) to _printf_charcount.o(.text) for _printf_charcount
    _printf_x.o(.ARM.Collect$$_printf_percent$$0000000C) refers (Weak) to _printf_hex_int_ll_ptr.o(.text) for _printf_int_hex
    _printf_p.o(.ARM.Collect$$_printf_percent$$00000002) refers (Weak) to _printf_hex_int_ll_ptr.o(.text) for _printf_hex_ptr
    _printf_o.o(.ARM.Collect$$_printf_percent$$0000000B) refers (Weak) to _printf_oct_int_ll.o(.text) for _printf_int_oct
    _printf_i.o(.ARM.Collect$$_printf_percent$$00000008) refers (Weak) to _printf_dec.o(.text) for _printf_int_dec
    _printf_u.o(.ARM.Collect$$_printf_percent$$0000000A) refers (Weak) to _printf_dec.o(.text) for _printf_int_dec
    _printf_f.o(.ARM.Collect$$_printf_percent$$00000003) refers (Weak) to printf1.o(x$fpl$printf1) for _printf_fp_dec
    _printf_e.o(.ARM.Collect$$_printf_percent$$00000004) refers (Weak) to printf1.o(x$fpl$printf1) for _printf_fp_dec
    _printf_g.o(.ARM.Collect$$_printf_percent$$00000005) refers (Weak) to printf1.o(x$fpl$printf1) for _printf_fp_dec
    _printf_lli.o(.ARM.Collect$$_printf_percent$$0000000D) refers (Special) to _printf_ll.o(.ARM.Collect$$_printf_percent$$00000007) for _printf_ll
    _printf_lli.o(.ARM.Collect$$_printf_percent$$0000000D) refers (Weak) to _printf_longlong_dec.o(.text) for _printf_longlong_dec
    _printf_lld.o(.ARM.Collect$$_printf_percent$$0000000E) refers (Special) to _printf_ll.o(.ARM.Collect$$_printf_percent$$00000007) for _printf_ll
    _printf_lld.o(.ARM.Collect$$_printf_percent$$0000000E) refers (Weak) to _printf_longlong_dec.o(.text) for _printf_longlong_dec
    _printf_llu.o(.ARM.Collect$$_printf_percent$$0000000F) refers (Special) to _printf_ll.o(.ARM.Collect$$_printf_percent$$00000007) for _printf_ll
    _printf_llu.o(.ARM.Collect$$_printf_percent$$0000000F) refers (Weak) to _printf_longlong_dec.o(.text) for _printf_longlong_dec
    _printf_lc.o(.ARM.Collect$$_printf_percent$$00000015) refers (Special) to _printf_l.o(.ARM.Collect$$_printf_percent$$00000012) for _printf_l
    _printf_lc.o(.ARM.Collect$$_printf_percent$$00000015) refers (Weak) to _printf_wchar.o(.text) for _printf_wchar
    _printf_ls.o(.ARM.Collect$$_printf_percent$$00000016) refers (Special) to _printf_l.o(.ARM.Collect$$_printf_percent$$00000012) for _printf_l
    _printf_ls.o(.ARM.Collect$$_printf_percent$$00000016) refers (Weak) to _printf_wchar.o(.text) for _printf_wstring
    _printf_llo.o(.ARM.Collect$$_printf_percent$$00000010) refers (Special) to _printf_ll.o(.ARM.Collect$$_printf_percent$$00000007) for _printf_ll
    _printf_llo.o(.ARM.Collect$$_printf_percent$$00000010) refers (Weak) to _printf_oct_int_ll.o(.text) for _printf_ll_oct
    _printf_llx.o(.ARM.Collect$$_printf_percent$$00000011) refers (Special) to _printf_ll.o(.ARM.Collect$$_printf_percent$$00000007) for _printf_ll
    _printf_llx.o(.ARM.Collect$$_printf_percent$$00000011) refers (Weak) to _printf_hex_int_ll_ptr.o(.text) for _printf_ll_hex
    stdio_streams.o(.bss) refers (Special) to initio.o(.text) for _initio
    stdio_streams.o(.bss) refers (Special) to initio.o(.text) for _initio
    stdio_streams.o(.bss) refers (Special) to initio.o(.text) for _initio
    stdio_streams.o(.data) refers (Special) to initio.o(.text) for _initio
    stdio_streams.o(.data) refers (Special) to initio.o(.text) for _initio
    stdio_streams.o(.data) refers (Special) to initio.o(.text) for _initio
    rt_memmove_w.o(.text) refers to rt_memcpy_w.o(.text) for __aeabi_memcpy4
    printf1.o(x$fpl$printf1) refers to _printf_fp_dec.o(.text) for _printf_fp_dec_real
    __rtentry2.o(.ARM.Collect$$rtentry$$00000008) refers to boardinit2.o(.text) for _platform_post_stackheap_init
    __rtentry2.o(.ARM.Collect$$rtentry$$0000000A) refers to libinit.o(.ARM.Collect$$libinit$$00000000) for __rt_lib_init
    __rtentry2.o(.ARM.Collect$$rtentry$$0000000B) refers to boardinit3.o(.text) for _platform_post_lib_init
    __rtentry2.o(.ARM.Collect$$rtentry$$0000000D) refers to app.o(.text) for main
    __rtentry2.o(.ARM.Collect$$rtentry$$0000000D) refers to exit.o(.text) for exit
    __rtentry2.o(.ARM.exidx) refers to __rtentry2.o(.ARM.Collect$$rtentry$$00000001) for .ARM.Collect$$rtentry$$00000001
    __rtentry2.o(.ARM.exidx) refers to __rtentry2.o(.ARM.Collect$$rtentry$$00000008) for .ARM.Collect$$rtentry$$00000008
    __rtentry2.o(.ARM.exidx) refers to __rtentry2.o(.ARM.Collect$$rtentry$$0000000A) for .ARM.Collect$$rtentry$$0000000A
    __rtentry2.o(.ARM.exidx) refers to __rtentry2.o(.ARM.Collect$$rtentry$$0000000B) for .ARM.Collect$$rtentry$$0000000B
    __rtentry2.o(.ARM.exidx) refers to __rtentry2.o(.ARM.Collect$$rtentry$$0000000D) for .ARM.Collect$$rtentry$$0000000D
    __rtentry4.o(.ARM.Collect$$rtentry$$00000004) refers to sys_stackheap_outer.o(.text) for __user_setup_stackheap
    __rtentry4.o(.ARM.exidx) refers to __rtentry4.o(.ARM.Collect$$rtentry$$00000004) for .ARM.Collect$$rtentry$$00000004
    _printf_fp_dec.o(.text) refers (Special) to usenofp.o(x$fpl$usenofp) for __I$use$fp
    _printf_fp_dec.o(.text) refers (Special) to lc_numeric_c.o(locale$$code) for _get_lc_numeric
    _printf_fp_dec.o(.text) refers to bigflt0.o(.text) for _btod_etento
    _printf_fp_dec.o(.text) refers to btod.o(CL$$btod_d2e) for _btod_d2e
    _printf_fp_dec.o(.text) refers to btod.o(CL$$btod_ediv) for _btod_ediv
    _printf_fp_dec.o(.text) refers to btod.o(CL$$btod_emul) for _btod_emul
    _printf_fp_dec.o(.text) refers to lludiv10.o(.text) for _ll_udiv10
    _printf_fp_dec.o(.text) refers to fpclassify.o(i.__ARM_fpclassify) for __ARM_fpclassify
    _printf_fp_dec.o(.text) refers to _printf_fp_infnan.o(.text) for _printf_fp_infnan
    _printf_fp_dec.o(.text) refers (Weak) to _printf_pad.o(.text) for _printf_pre_padding
    _printf_fp_dec.o(.text) refers (Weak) to _printf_pad.o(.text) for _printf_pre_padding
    _printf_fp_dec.o(.text) refers to rt_locale_intlibspace.o(.text) for __rt_locale
    _printf_fp_dec.o(.text) refers (Weak) to _printf_pad.o(.text) for _printf_post_padding
    _printf_char.o(.text) refers (Weak) to _printf_str.o(.text) for _printf_str
    _printf_wchar.o(.text) refers (Weak) to _printf_wctomb.o(.text) for _printf_wctomb
    fputc.o(i.fputc) refers to flsbuf.o(.text) for __flsbuf_byte
    initio.o(.text) refers (Special) to libinit2.o(.ARM.Collect$$libinit$$00000024) for __rt_lib_init_stdio_2
    initio.o(.text) refers (Special) to libshutdown2.o(.ARM.Collect$$libshutdown$$00000002) for __rt_lib_shutdown_stdio_2
    initio.o(.text) refers to rt_memclr_w.o(.text) for __aeabi_memclr4
    initio.o(.text) refers to fopen.o(.text) for freopen
    initio.o(.text) refers to defsig_rtred_outer.o(.text) for __rt_SIGRTRED
    initio.o(.text) refers to setvbuf.o(.text) for setvbuf
    initio.o(.text) refers to fclose.o(.text) for _fclose_internal
    initio.o(.text) refers to h1_free.o(.text) for free
    initio.o(.text) refers to stdio_streams.o(.bss) for __stdin
    initio.o(.text) refers to stdio_streams.o(.bss) for __stdout
    initio.o(.text) refers to stdio_streams.o(.bss) for __stderr
    initio.o(.text) refers to stdio_streams.o(.data) for __aeabi_stdin
    initio.o(.text) refers to stdio_streams.o(.data) for __aeabi_stdout
    initio.o(.text) refers to stdio_streams.o(.data) for __aeabi_stderr
    initio.o(.text) refers to sys_io.o(.constdata) for __stdin_name
    initio.o(.text) refers to sys_io.o(.constdata) for __stdout_name
    initio.o(.text) refers to sys_io.o(.constdata) for __stderr_name
    initio_locked.o(.text) refers (Special) to libinit2.o(.ARM.Collect$$libinit$$00000024) for __rt_lib_init_stdio_2
    initio_locked.o(.text) refers (Special) to libshutdown2.o(.ARM.Collect$$libshutdown$$00000002) for __rt_lib_shutdown_stdio_2
    initio_locked.o(.text) refers to rt_memclr_w.o(.text) for __aeabi_memclr4
    initio_locked.o(.text) refers to fopen.o(.text) for freopen
    initio_locked.o(.text) refers to defsig_rtred_outer.o(.text) for __rt_SIGRTRED
    initio_locked.o(.text) refers to setvbuf.o(.text) for setvbuf
    initio_locked.o(.text) refers to fclose.o(.text) for _fclose_internal
    initio_locked.o(.text) refers to h1_free.o(.text) for free
    initio_locked.o(.text) refers to stdio_streams.o(.bss) for __stdin
    initio_locked.o(.text) refers to stdio_streams.o(.bss) for __stdout
    initio_locked.o(.text) refers to stdio_streams.o(.bss) for __stderr
    initio_locked.o(.text) refers to stdio_streams.o(.data) for __aeabi_stdin
    initio_locked.o(.text) refers to stdio_streams.o(.data) for __aeabi_stdout
    initio_locked.o(.text) refers to stdio_streams.o(.data) for __aeabi_stderr
    initio_locked.o(.text) refers to streamlock.o(.data) for _stream_list_lock
    initio_locked.o(.text) refers to sys_io.o(.constdata) for __stdin_name
    initio_locked.o(.text) refers to sys_io.o(.constdata) for __stdout_name
    initio_locked.o(.text) refers to sys_io.o(.constdata) for __stderr_name
    _wcrtomb.o(.text) refers to rt_ctype_table.o(.text) for __rt_ctype_table
    sys_io.o(.text) refers (Special) to use_no_semi.o(.text) for __I$use$semihosting
    sys_io.o(.text) refers (Special) to indicate_semi.o(.text) for __semihosting_library_function
    sys_io.o(.text) refers to strlen.o(.text) for strlen
    sys_io.o(.constdata) refers (Special) to use_no_semi.o(.text) for __I$use$semihosting
    sys_io.o(.constdata) refers (Special) to indicate_semi.o(.text) for __semihosting_library_function
    sys_io.o(.constdata) refers (Special) to use_no_semi.o(.text) for __I$use$semihosting
    sys_io.o(.constdata) refers (Special) to indicate_semi.o(.text) for __semihosting_library_function
    sys_io.o(.constdata) refers (Special) to use_no_semi.o(.text) for __I$use$semihosting
    sys_io.o(.constdata) refers (Special) to indicate_semi.o(.text) for __semihosting_library_function
    sys_stackheap_outer.o(.text) refers to libspace.o(.text) for __user_perproc_libspace
    sys_stackheap_outer.o(.text) refers to cstartup.o(.text) for __user_initial_stackheap
    rt_ctype_table.o(.text) refers to rt_locale_intlibspace.o(.text) for __rt_locale
    rt_ctype_table.o(.text) refers to lc_ctype_c.o(locale$$code) for _get_lc_ctype
    rt_locale.o(.text) refers to rt_locale.o(.bss) for __rt_locale_data
    rt_locale_intlibspace.o(.text) refers to libspace.o(.bss) for __libspace_start
    free.o(.text) refers (Special) to hguard.o(.text) for __heap$guard
    free.o(.text) refers to rt_heap_descriptor_intlibspace.o(.text) for __rt_heap_descriptor
    free.o(.text) refers to heapstubs.o(.text) for __Heap_Free
    h1_free.o(.text) refers to rt_heap_descriptor_intlibspace.o(.text) for __rt_heap_descriptor
    h1_free_mt.o(.text) refers to rt_heap_descriptor_intlibspace.o(.text) for __rt_heap_descriptor
    heap2.o(i._FDIterate) refers to heap2.o(.conststring) for .conststring
    heap2.o(i.___Heap_ProvideMemory$realtime) refers to fdtree.o(i._FDTree_Delete) for _FDTree_Delete
    heap2.o(i.___Heap_ProvideMemory$realtime) refers to fdtree.o(i._FDTree_Insert) for _FDTree_Insert
    heap2.o(i.___Heap_Stats$realtime) refers to heap2.o(i._Heap2_StatsIterate) for _Heap2_StatsIterate
    heap2.o(i.___Heap_Valid$realtime) refers to heap2.o(i._FDIterate) for _FDIterate
    heap2.o(i.___Heap_Valid$realtime) refers to heap2.o(.conststring) for .conststring
    heap2.o(i._free$realtime) refers to rt_heap_descriptor_intlibspace.o(.text) for __rt_heap_descriptor
    heap2.o(i._free$realtime) refers to fdtree.o(i._FDTree_Delete) for _FDTree_Delete
    heap2.o(i._free$realtime) refers to fdtree.o(i._FDTree_Insert) for _FDTree_Insert
    heap2.o(i._malloc$realtime) refers to rt_heap_descriptor_intlibspace.o(.text) for __rt_heap_descriptor
    heap2.o(i._malloc$realtime) refers to fdtree.o(i._FDTree_FindFirst) for _FDTree_FindFirst
    heap2.o(i._malloc$realtime) refers to init_alloc.o(.text) for __Heap_Full
    heap2.o(i._malloc$realtime) refers to fdtree.o(i._FDTree_RemoveNode) for _FDTree_RemoveNode
    heap2.o(i._malloc$realtime) refers to fdtree.o(i._FDTree_Insert) for _FDTree_Insert
    heap2.o(i._posix_memalign$realtime) refers to rt_heap_descriptor_intlibspace.o(.text) for __rt_heap_descriptor
    heap2.o(i._posix_memalign$realtime) refers to fdtree.o(i._FDTree_FindFirst) for _FDTree_FindFirst
    heap2.o(i._posix_memalign$realtime) refers to init_alloc.o(.text) for __Heap_Full
    heap2.o(i._posix_memalign$realtime) refers to fdtree.o(i._FDTree_RemoveNode) for _FDTree_RemoveNode
    heap2.o(i._posix_memalign$realtime) refers to fdtree.o(i._FDTree_Insert) for _FDTree_Insert
    heap2.o(i._realloc$realtime) refers to rt_heap_descriptor_intlibspace.o(.text) for __rt_heap_descriptor
    heap2.o(i._realloc$realtime) refers to fdtree.o(i._FDTree_Insert) for _FDTree_Insert
    heap2.o(i._realloc$realtime) refers to h1_free.o(.text) for free
    heap2.o(i._realloc$realtime) refers to h1_alloc.o(.text) for malloc
    heap2.o(i._realloc$realtime) refers to fdtree.o(i._FDTree_Delete) for _FDTree_Delete
    heap2.o(i._realloc$realtime) refers to rt_memcpy_w.o(.text) for __aeabi_memcpy4
    heap2mt.o(i._FDIterate) refers to heap2mt.o(.conststring) for .conststring
    heap2mt.o(i.___Heap_Initialize$realtime$concurrent) refers to mutex_dummy.o(.text) for _mutex_initialize
    heap2mt.o(i.___Heap_ProvideMemory$realtime$concurrent) refers to fdtree.o(i._FDTree_Delete) for _FDTree_Delete
    heap2mt.o(i.___Heap_ProvideMemory$realtime$concurrent) refers to fdtree.o(i._FDTree_Insert) for _FDTree_Insert
    heap2mt.o(i.___Heap_Stats$realtime$concurrent) refers to heap2mt.o(i._Heap2_StatsIterate) for _Heap2_StatsIterate
    heap2mt.o(i.___Heap_Valid$realtime$concurrent) refers to heap2mt.o(i._FDIterate) for _FDIterate
    heap2mt.o(i.___Heap_Valid$realtime$concurrent) refers to heap2mt.o(.conststring) for .conststring
    heap2mt.o(i._free$realtime$concurrent) refers to rt_heap_descriptor_intlibspace.o(.text) for __rt_heap_descriptor
    heap2mt.o(i._free$realtime$concurrent) refers to fdtree.o(i._FDTree_Delete) for _FDTree_Delete
    heap2mt.o(i._free$realtime$concurrent) refers to fdtree.o(i._FDTree_Insert) for _FDTree_Insert
    heap2mt.o(i._malloc$realtime$concurrent) refers to rt_heap_descriptor_intlibspace.o(.text) for __rt_heap_descriptor
    heap2mt.o(i._malloc$realtime$concurrent) refers to fdtree.o(i._FDTree_FindFirst) for _FDTree_FindFirst
    heap2mt.o(i._malloc$realtime$concurrent) refers to init_alloc.o(.text) for __Heap_Full
    heap2mt.o(i._malloc$realtime$concurrent) refers to fdtree.o(i._FDTree_RemoveNode) for _FDTree_RemoveNode
    heap2mt.o(i._malloc$realtime$concurrent) refers to fdtree.o(i._FDTree_Insert) for _FDTree_Insert
    heap2mt.o(i._posix_memalign$realtime$concurrent) refers to rt_heap_descriptor_intlibspace.o(.text) for __rt_heap_descriptor
    heap2mt.o(i._posix_memalign$realtime$concurrent) refers to fdtree.o(i._FDTree_FindFirst) for _FDTree_FindFirst
    heap2mt.o(i._posix_memalign$realtime$concurrent) refers to init_alloc.o(.text) for __Heap_Full
    heap2mt.o(i._posix_memalign$realtime$concurrent) refers to fdtree.o(i._FDTree_RemoveNode) for _FDTree_RemoveNode
    heap2mt.o(i._posix_memalign$realtime$concurrent) refers to fdtree.o(i._FDTree_Insert) for _FDTree_Insert
    heap2mt.o(i._realloc$realtime$concurrent) refers to rt_heap_descriptor_intlibspace.o(.text) for __rt_heap_descriptor
    heap2mt.o(i._realloc$realtime$concurrent) refers to fdtree.o(i._FDTree_Insert) for _FDTree_Insert
    heap2mt.o(i._realloc$realtime$concurrent) refers to h1_free.o(.text) for free
    heap2mt.o(i._realloc$realtime$concurrent) refers to h1_alloc.o(.text) for malloc
    heap2mt.o(i._realloc$realtime$concurrent) refers to fdtree.o(i._FDTree_Delete) for _FDTree_Delete
    heap2mt.o(i._realloc$realtime$concurrent) refers to rt_memcpy_w.o(.text) for __aeabi_memcpy4
    _printf_fp_infnan.o(.text) refers (Weak) to _printf_pad.o(.text) for _printf_pre_padding
    _printf_fp_infnan.o(.text) refers (Weak) to _printf_pad.o(.text) for _printf_post_padding
    bigflt0.o(.text) refers (Special) to usenofp.o(x$fpl$usenofp) for __I$use$fp
    bigflt0.o(.text) refers to btod.o(CL$$btod_emul) for _btod_emul
    bigflt0.o(.text) refers to btod.o(CL$$btod_ediv) for _btod_ediv
    bigflt0.o(.text) refers to bigflt0.o(.constdata) for .constdata
    bigflt0.o(.constdata) refers (Special) to usenofp.o(x$fpl$usenofp) for __I$use$fp
    btod.o(CL$$btod_d2e) refers (Special) to usenofp.o(x$fpl$usenofp) for __I$use$fp
    btod.o(CL$$btod_d2e) refers to btod.o(CL$$btod_d2e_norm_op1) for _d2e_norm_op1
    btod.o(CL$$btod_d2e_norm_op1) refers (Special) to usenofp.o(x$fpl$usenofp) for __I$use$fp
    btod.o(CL$$btod_d2e_norm_op1) refers to btod.o(CL$$btod_d2e_denorm_low) for _d2e_denorm_low
    btod.o(CL$$btod_d2e_denorm_low) refers (Special) to usenofp.o(x$fpl$usenofp) for __I$use$fp
    btod.o(CL$$btod_emul) refers (Special) to usenofp.o(x$fpl$usenofp) for __I$use$fp
    btod.o(CL$$btod_emul) refers to btod.o(CL$$btod_mult_common) for __btod_mult_common
    btod.o(CL$$btod_emul) refers to btod.o(CL$$btod_e2e) for _e2e
    btod.o(CL$$btod_ediv) refers (Special) to usenofp.o(x$fpl$usenofp) for __I$use$fp
    btod.o(CL$$btod_ediv) refers to btod.o(CL$$btod_div_common) for __btod_div_common
    btod.o(CL$$btod_ediv) refers to btod.o(CL$$btod_e2e) for _e2e
    btod.o(CL$$btod_emuld) refers (Special) to usenofp.o(x$fpl$usenofp) for __I$use$fp
    btod.o(CL$$btod_emuld) refers to btod.o(CL$$btod_mult_common) for __btod_mult_common
    btod.o(CL$$btod_emuld) refers to btod.o(CL$$btod_e2d) for _e2d
    btod.o(CL$$btod_edivd) refers (Special) to usenofp.o(x$fpl$usenofp) for __I$use$fp
    btod.o(CL$$btod_edivd) refers to btod.o(CL$$btod_div_common) for __btod_div_common
    btod.o(CL$$btod_edivd) refers to btod.o(CL$$btod_e2d) for _e2d
    btod.o(CL$$btod_e2e) refers (Special) to usenofp.o(x$fpl$usenofp) for __I$use$fp
    btod.o(CL$$btod_e2d) refers (Special) to usenofp.o(x$fpl$usenofp) for __I$use$fp
    btod.o(CL$$btod_e2d) refers to btod.o(CL$$btod_e2e) for _e2e
    btod.o(CL$$btod_mult_common) refers (Special) to usenofp.o(x$fpl$usenofp) for __I$use$fp
    btod.o(CL$$btod_div_common) refers (Special) to usenofp.o(x$fpl$usenofp) for __I$use$fp
    flsbuf.o(.text) refers to stdio.o(.text) for _deferredlazyseek
    flsbuf.o(.text) refers to sys_io.o(.text) for _sys_flen
    flsbuf.o(.text) refers to h1_alloc.o(.text) for malloc
    streamlock.o(.data) refers (Special) to initio.o(.text) for _initio
    fopen.o(.text) refers to fclose.o(.text) for _fclose_internal
    fopen.o(.text) refers to sys_io.o(.text) for _sys_open
    fopen.o(.text) refers to fseek.o(.text) for _fseek
    fopen.o(.text) refers to h1_alloc.o(.text) for malloc
    fopen.o(.text) refers to rt_memclr_w.o(.text) for __aeabi_memclr4
    fopen.o(.text) refers to stdio_streams.o(.bss) for __stdin
    fclose.o(.text) refers to stdio.o(.text) for _fflush
    fclose.o(.text) refers to sys_io.o(.text) for _sys_close
    fclose.o(.text) refers to h1_free.o(.text) for free
    fclose.o(.text) refers to rt_memclr_w.o(.text) for __aeabi_memclr4
    fopen_locked.o(.text) refers to fclose.o(.text) for _fclose_internal
    fopen_locked.o(.text) refers to sys_io.o(.text) for _sys_open
    fopen_locked.o(.text) refers to fseek.o(.text) for _fseek
    fopen_locked.o(.text) refers to h1_alloc.o(.text) for malloc
    fopen_locked.o(.text) refers to rt_memclr_w.o(.text) for __aeabi_memclr4
    fopen_locked.o(.text) refers to streamlock.o(.data) for _stream_list_lock
    fopen_locked.o(.text) refers to stdio_streams.o(.bss) for __stdin
    lc_numeric_c.o(locale$$data) refers (Special) to libinit2.o(.ARM.Collect$$libinit$$00000016) for __rt_lib_init_lc_numeric_2
    lc_numeric_c.o(locale$$code) refers (Special) to libinit2.o(.ARM.Collect$$libinit$$00000016) for __rt_lib_init_lc_numeric_2
    lc_numeric_c.o(locale$$code) refers to strcmpv7m.o(.text) for strcmp
    lc_numeric_c.o(locale$$code) refers to lc_numeric_c.o(locale$$data) for __lcnum_c_name
    exit.o(.text) refers to rtexit.o(.ARM.Collect$$rtexit$$00000000) for __rt_exit
    defsig_rtred_outer.o(.text) refers to defsig_rtred_inner.o(.text) for __rt_SIGRTRED_inner
    defsig_rtred_outer.o(.text) refers to defsig_exit.o(.text) for __sig_exit
    defsig_rtred_formal.o(.text) refers to rt_raise.o(.text) for __rt_raise
    libinit.o(.ARM.Collect$$libinit$$00000000) refers (Special) to libinit2.o(.ARM.Collect$$libinit$$0000002E) for __rt_lib_init_alloca_1
    libinit.o(.ARM.Collect$$libinit$$00000000) refers (Special) to libinit2.o(.ARM.Collect$$libinit$$0000002C) for __rt_lib_init_argv_1
    libinit.o(.ARM.Collect$$libinit$$00000000) refers (Special) to libinit2.o(.ARM.Collect$$libinit$$0000001B) for __rt_lib_init_atexit_1
    libinit.o(.ARM.Collect$$libinit$$00000000) refers (Special) to libinit2.o(.ARM.Collect$$libinit$$00000021) for __rt_lib_init_clock_1
    libinit.o(.ARM.Collect$$libinit$$00000000) refers (Special) to libinit2.o(.ARM.Collect$$libinit$$00000032) for __rt_lib_init_cpp_1
    libinit.o(.ARM.Collect$$libinit$$00000000) refers (Special) to libinit2.o(.ARM.Collect$$libinit$$00000030) for __rt_lib_init_exceptions_1
    libinit.o(.ARM.Collect$$libinit$$00000000) refers (Special) to libinit2.o(.ARM.Collect$$libinit$$00000002) for __rt_lib_init_fp_1
    libinit.o(.ARM.Collect$$libinit$$00000000) refers (Special) to libinit2.o(.ARM.Collect$$libinit$$0000001F) for __rt_lib_init_fp_trap_1
    libinit.o(.ARM.Collect$$libinit$$00000000) refers (Special) to libinit2.o(.ARM.Collect$$libinit$$00000023) for __rt_lib_init_getenv_1
    libinit.o(.ARM.Collect$$libinit$$00000000) refers (Special) to libinit2.o(.ARM.Collect$$libinit$$0000000A) for __rt_lib_init_heap_1
    libinit.o(.ARM.Collect$$libinit$$00000000) refers (Special) to libinit2.o(.ARM.Collect$$libinit$$00000011) for __rt_lib_init_lc_collate_1
    libinit.o(.ARM.Collect$$libinit$$00000000) refers (Special) to libinit2.o(.ARM.Collect$$libinit$$00000013) for __rt_lib_init_lc_ctype_1
    libinit.o(.ARM.Collect$$libinit$$00000000) refers (Special) to libinit2.o(.ARM.Collect$$libinit$$00000015) for __rt_lib_init_lc_monetary_1
    libinit.o(.ARM.Collect$$libinit$$00000000) refers (Special) to libinit2.o(.ARM.Collect$$libinit$$00000017) for __rt_lib_init_lc_numeric_1
    libinit.o(.ARM.Collect$$libinit$$00000000) refers (Special) to libinit2.o(.ARM.Collect$$libinit$$00000019) for __rt_lib_init_lc_time_1
    libinit.o(.ARM.Collect$$libinit$$00000000) refers (Special) to libinit2.o(.ARM.Collect$$libinit$$00000004) for __rt_lib_init_preinit_1
    libinit.o(.ARM.Collect$$libinit$$00000000) refers (Special) to libinit2.o(.ARM.Collect$$libinit$$0000000E) for __rt_lib_init_rand_1
    libinit.o(.ARM.Collect$$libinit$$00000000) refers (Special) to libinit2.o(.ARM.Collect$$libinit$$00000033) for __rt_lib_init_return
    libinit.o(.ARM.Collect$$libinit$$00000000) refers (Special) to libinit2.o(.ARM.Collect$$libinit$$0000001D) for __rt_lib_init_signal_1
    libinit.o(.ARM.Collect$$libinit$$00000000) refers (Special) to libinit2.o(.ARM.Collect$$libinit$$00000025) for __rt_lib_init_stdio_1
    libinit.o(.ARM.Collect$$libinit$$00000000) refers (Special) to libinit2.o(.ARM.Collect$$libinit$$0000000C) for __rt_lib_init_user_alloc_1
    libinit2.o(.ARM.Collect$$libinit$$00000005) refers (Weak) to init_alloc.o(.text) for _init_alloc
    libinit2.o(.ARM.Collect$$libinit$$0000000F) refers (Weak) to rt_locale_intlibspace.o(.text) for __rt_locale
    libinit2.o(.ARM.Collect$$libinit$$00000010) refers to libinit2.o(.ARM.Collect$$libinit$$0000000F) for .ARM.Collect$$libinit$$0000000F
    libinit2.o(.ARM.Collect$$libinit$$00000012) refers to libinit2.o(.ARM.Collect$$libinit$$0000000F) for .ARM.Collect$$libinit$$0000000F
    libinit2.o(.ARM.Collect$$libinit$$00000012) refers (Weak) to lc_ctype_c.o(locale$$code) for _get_lc_ctype
    libinit2.o(.ARM.Collect$$libinit$$00000014) refers to libinit2.o(.ARM.Collect$$libinit$$0000000F) for .ARM.Collect$$libinit$$0000000F
    libinit2.o(.ARM.Collect$$libinit$$00000016) refers to libinit2.o(.ARM.Collect$$libinit$$0000000F) for .ARM.Collect$$libinit$$0000000F
    libinit2.o(.ARM.Collect$$libinit$$00000016) refers (Weak) to lc_numeric_c.o(locale$$code) for _get_lc_numeric
    libinit2.o(.ARM.Collect$$libinit$$00000018) refers to libinit2.o(.ARM.Collect$$libinit$$0000000F) for .ARM.Collect$$libinit$$0000000F
    libinit2.o(.ARM.Collect$$libinit$$00000024) refers (Weak) to initio.o(.text) for _initio
    libinit2.o(.ARM.Collect$$libinit$$00000026) refers to argv_veneer.o(.emb_text) for __ARM_argv_veneer
    libinit2.o(.ARM.Collect$$libinit$$00000027) refers to argv_veneer.o(.emb_text) for __ARM_argv_veneer
    libshutdown2.o(.ARM.Collect$$libshutdown$$00000002) refers (Weak) to initio.o(.text) for _terminateio
    libshutdown2.o(.ARM.Collect$$libshutdown$$0000000C) refers (Weak) to term_alloc.o(.text) for _terminate_alloc
    flsbuf_fwide.o(.text) refers to flsbuf.o(.text) for __flsbuf
    istatus.o(x$fpl$ieeestatus) refers (Special) to usenofp.o(x$fpl$usenofp) for __I$use$fp
    fpclassify.o(i.__ARM_fpclassify) refers (Special) to usenofp.o(x$fpl$usenofp) for __I$use$fp
    libspace.o(.text) refers to libspace.o(.bss) for __libspace_start
    rtexit.o(.ARM.Collect$$rtexit$$00000000) refers (Special) to rtexit2.o(.ARM.Collect$$rtexit$$00000004) for __rt_exit_exit
    rtexit.o(.ARM.Collect$$rtexit$$00000000) refers (Special) to rtexit2.o(.ARM.Collect$$rtexit$$00000003) for __rt_exit_ls
    rtexit.o(.ARM.Collect$$rtexit$$00000000) refers (Special) to rtexit2.o(.ARM.Collect$$rtexit$$00000002) for __rt_exit_prels_1
    rtexit.o(.ARM.exidx) refers (Special) to rtexit2.o(.ARM.Collect$$rtexit$$00000004) for __rt_exit_exit
    rtexit.o(.ARM.exidx) refers (Special) to rtexit2.o(.ARM.Collect$$rtexit$$00000003) for __rt_exit_ls
    rtexit.o(.ARM.exidx) refers (Special) to rtexit2.o(.ARM.Collect$$rtexit$$00000002) for __rt_exit_prels_1
    rtexit.o(.ARM.exidx) refers to rtexit.o(.ARM.Collect$$rtexit$$00000000) for .ARM.Collect$$rtexit$$00000000
    rt_raise.o(.text) refers to __raise.o(.text) for __raise
    rt_raise.o(.text) refers to sys_exit.o(.text) for _sys_exit
    rt_heap_descriptor.o(.text) refers to rt_heap_descriptor.o(.bss) for __rt_heap_descriptor_data
    rt_heap_descriptor_intlibspace.o(.text) refers to libspace.o(.bss) for __libspace_start
    init_alloc.o(.text) refers (Special) to hguard.o(.text) for __heap$guard
    init_alloc.o(.text) refers (Special) to libinit2.o(.ARM.Collect$$libinit$$00000005) for __rt_lib_init_heap_2
    init_alloc.o(.text) refers (Special) to maybetermalloc1.o(.emb_text) for _maybe_terminate_alloc
    init_alloc.o(.text) refers to h1_extend.o(.text) for __Heap_ProvideMemory
    init_alloc.o(.text) refers to defsig_rtmem_outer.o(.text) for __rt_SIGRTMEM
    init_alloc.o(.text) refers to rt_heap_descriptor_intlibspace.o(.text) for __rt_heap_descriptor
    init_alloc.o(.text) refers to h1_init.o(.text) for __Heap_Initialize
    malloc.o(.text) refers (Special) to hguard.o(.text) for __heap$guard
    malloc.o(.text) refers (Special) to init_alloc.o(.text) for _init_alloc
    malloc.o(.text) refers to rt_heap_descriptor_intlibspace.o(.text) for __rt_heap_descriptor
    malloc.o(.text) refers to heapstubs.o(.text) for __Heap_Alloc
    h1_alloc.o(.text) refers (Special) to h1_init.o(.text) for __Heap_Initialize
    h1_alloc.o(.text) refers to rt_heap_descriptor_intlibspace.o(.text) for __rt_heap_descriptor
    h1_alloc.o(.text) refers to init_alloc.o(.text) for __Heap_Full
    h1_alloc_mt.o(.text) refers (Special) to h1_init.o(.text) for __Heap_Initialize
    h1_alloc_mt.o(.text) refers to init_alloc.o(.text) for __Heap_Full
    h1_alloc_mt.o(.text) refers to rt_heap_descriptor_intlibspace.o(.text) for __rt_heap_descriptor
    _printf_char_file_locked.o(.text) refers to _printf_char_common.o(.text) for _printf_char_common
    _printf_char_file_locked.o(.text) refers to fputc.o(i._fputc$unlocked) for _fputc$unlocked
    fseek.o(.text) refers to sys_io.o(.text) for _sys_istty
    fseek.o(.text) refers to ftell.o(.text) for _ftell_internal
    fseek.o(.text) refers to stdio.o(.text) for _seterr
    stdio.o(.text) refers to sys_io.o(.text) for _sys_seek
    fwritefast.o(.text) refers to stdio.o(.text) for _writebuf
    fwritefast.o(.text) refers to flsbuf.o(.text) for __flsbuf_byte
    fwritefast.o(.text) refers to rt_memcpy_v6.o(.text) for __aeabi_memcpy
    fwritefast_locked.o(.text) refers to stdio.o(.text) for _writebuf
    fwritefast_locked.o(.text) refers to flsbuf.o(.text) for __flsbuf_byte
    fwritefast_locked.o(.text) refers to rt_memcpy_v6.o(.text) for __aeabi_memcpy
    lc_ctype_c.o(locale$$data) refers (Special) to libinit2.o(.ARM.Collect$$libinit$$00000012) for __rt_lib_init_lc_ctype_2
    lc_ctype_c.o(locale$$code) refers (Special) to libinit2.o(.ARM.Collect$$libinit$$00000012) for __rt_lib_init_lc_ctype_2
    lc_ctype_c.o(locale$$code) refers to strcmpv7m.o(.text) for strcmp
    lc_ctype_c.o(locale$$code) refers to lc_ctype_c.o(locale$$data) for __lcctype_c_name
    defsig_exit.o(.text) refers to sys_exit.o(.text) for _sys_exit
    defsig_rtred_inner.o(.text) refers to defsig_general.o(.text) for __default_signal_display
    assert_stdio.o(.text) refers to fputs.o(.text) for fputs
    assert_stdio.o(.text) refers to fflush.o(.text) for fflush
    assert_stdio.o(.text) refers to stdio_streams.o(.bss) for __stderr
    argv_veneer.o(.emb_text) refers to no_argv.o(.text) for __ARM_get_argv
    sys_exit.o(.text) refers (Special) to use_no_semi.o(.text) for __I$use$semihosting
    sys_exit.o(.text) refers (Special) to indicate_semi.o(.text) for __semihosting_library_function
    rtexit2.o(.ARM.Collect$$rtexit$$00000003) refers to libshutdown.o(.ARM.Collect$$libshutdown$$00000000) for __rt_lib_shutdown
    rtexit2.o(.ARM.Collect$$rtexit$$00000004) refers to sys_exit.o(.text) for _sys_exit
    rtexit2.o(.ARM.exidx) refers to rtexit2.o(.ARM.Collect$$rtexit$$00000001) for .ARM.Collect$$rtexit$$00000001
    rtexit2.o(.ARM.exidx) refers to rtexit2.o(.ARM.Collect$$rtexit$$00000003) for .ARM.Collect$$rtexit$$00000003
    rtexit2.o(.ARM.exidx) refers to rtexit2.o(.ARM.Collect$$rtexit$$00000004) for .ARM.Collect$$rtexit$$00000004
    maybetermalloc2.o(.emb_text) refers (Special) to term_alloc.o(.text) for _terminate_alloc
    h1_extend.o(.text) refers to h1_free.o(.text) for free
    h1_init_mt.o(.text) refers to mutex_dummy.o(.text) for _mutex_initialize
    h1_extend_mt.o(.text) refers to h1_free_mt.o(.text) for _free_internal
    fflush.o(.text) refers to stdio.o(.text) for _fflush
    fflush.o(.text) refers to fseek.o(.text) for _fseek
    fflush.o(.text) refers to stdio_streams.o(.bss) for __stdin
    fputs.o(.text) refers to fputc.o(i.fputc) for fputc
    ftell.o(.text) refers to rt_errno_addr_intlibspace.o(.text) for __aeabi_errno_addr
    fflush_locked.o(.text) refers to stdio.o(.text) for _fflush
    fflush_locked.o(.text) refers to fseek.o(.text) for _fseek
    fflush_locked.o(.text) refers to fflush.o(.text) for _do_fflush
    fflush_locked.o(.text) refers to streamlock.o(.data) for _stream_list_lock
    fflush_locked.o(.text) refers to stdio_streams.o(.bss) for __stdin
    __raise.o(.text) refers to defsig.o(CL$$defsig) for __default_signal_handler
    defsig_general.o(.text) refers to sys_wrch.o(.text) for _ttywrch
    defsig_rtmem_outer.o(.text) refers to defsig_rtmem_inner.o(.text) for __rt_SIGRTMEM_inner
    defsig_rtmem_outer.o(.text) refers to defsig_exit.o(.text) for __sig_exit
    defsig_rtmem_formal.o(.text) refers to rt_raise.o(.text) for __rt_raise
    heapauxa.o(.text) refers to heapauxa.o(.data) for .data
    _get_argv.o(.text) refers (Special) to hrguard.o(.text) for __heap_region$guard
    _get_argv.o(.text) refers to h1_alloc.o(.text) for malloc
    _get_argv.o(.text) refers to defsig_rtmem_outer.o(.text) for __rt_SIGRTMEM
    _get_argv.o(.text) refers to sys_command.o(.text) for _sys_command_string
    _get_argv_nomalloc.o(.text) refers (Special) to hrguard.o(.text) for __heap_region$guard
    _get_argv_nomalloc.o(.text) refers to defsig_rtmem_outer.o(.text) for __rt_SIGRTMEM
    _get_argv_nomalloc.o(.text) refers to sys_command.o(.text) for _sys_command_string
    sys_wrch.o(.text) refers (Special) to use_no_semi.o(.text) for __I$use$semihosting
    sys_wrch.o(.text) refers (Special) to indicate_semi.o(.text) for __semihosting_library_function
    sys_command.o(.text) refers (Special) to use_no_semi.o(.text) for __I$use$semihosting
    sys_command.o(.text) refers (Special) to indicate_semi.o(.text) for __semihosting_library_function
    rt_errno_addr.o(.text) refers to rt_errno_addr.o(.bss) for __aeabi_errno_addr_data
    rt_errno_addr_intlibspace.o(.text) refers to libspace.o(.bss) for __libspace_start
    term_alloc.o(.text) refers (Special) to libshutdown2.o(.ARM.Collect$$libshutdown$$0000000D) for __rt_lib_shutdown_heap_2
    term_alloc.o(.text) refers to rt_heap_descriptor_intlibspace.o(.text) for __rt_heap_descriptor
    term_alloc.o(.text) refers to h1_final.o(.text) for __Heap_Finalize
    defsig_rtmem_inner.o(.text) refers to defsig_general.o(.text) for __default_signal_display
    defsig.o(CL$$defsig) refers to defsig_rtred_inner.o(.text) for __rt_SIGRTRED_inner
    defsig.o(CL$$defsig) refers to defsig_rtmem_inner.o(.text) for __rt_SIGRTMEM_inner
    libshutdown.o(.ARM.Collect$$libshutdown$$00000000) refers (Special) to libshutdown2.o(.ARM.Collect$$libshutdown$$00000006) for __rt_lib_shutdown_fp_trap_1
    libshutdown.o(.ARM.Collect$$libshutdown$$00000000) refers (Special) to libshutdown2.o(.ARM.Collect$$libshutdown$$0000000E) for __rt_lib_shutdown_heap_1
    libshutdown.o(.ARM.Collect$$libshutdown$$00000000) refers (Special) to libshutdown2.o(.ARM.Collect$$libshutdown$$0000000F) for __rt_lib_shutdown_return
    libshutdown.o(.ARM.Collect$$libshutdown$$00000000) refers (Special) to libshutdown2.o(.ARM.Collect$$libshutdown$$00000009) for __rt_lib_shutdown_signal_1
    libshutdown.o(.ARM.Collect$$libshutdown$$00000000) refers (Special) to libshutdown2.o(.ARM.Collect$$libshutdown$$00000003) for __rt_lib_shutdown_stdio_1
    libshutdown.o(.ARM.Collect$$libshutdown$$00000000) refers (Special) to libshutdown2.o(.ARM.Collect$$libshutdown$$0000000B) for __rt_lib_shutdown_user_alloc_1
    defsig_abrt_inner.o(.text) refers to defsig_general.o(.text) for __default_signal_display
    defsig_fpe_inner.o(.text) refers to defsig_general.o(.text) for __default_signal_display
    defsig_stak_inner.o(.text) refers to defsig_general.o(.text) for __default_signal_display
    defsig_pvfn_inner.o(.text) refers to defsig_general.o(.text) for __default_signal_display
    defsig_cppl_inner.o(.text) refers to defsig_general.o(.text) for __default_signal_display
    defsig_segv_inner.o(.text) refers to defsig_general.o(.text) for __default_signal_display
    defsig_other.o(.text) refers to defsig_general.o(.text) for __default_signal_display


==============================================================================

Removing Unused input sections from the image.

    Removing app.o(.emb_text), (8 bytes).
    Removing os_app_hooks.o(.text), (200 bytes).
    Removing pc_protocol.o(.emb_text), (8 bytes).
    Removing pc_protocol.o(.text), (448 bytes).
    Removing pc_protocol.o(.bss), (100 bytes).
    Removing pc_protocol.o(.data), (4 bytes).
    Removing servo_protocol.o(.emb_text), (8 bytes).
    Removing servo_protocol.o(.text), (736 bytes).
    Removing servo_protocol.o(.bss), (64 bytes).
    Removing servo_protocol.o(.data), (31 bytes).
    Removing mp3_player.o(.emb_text), (8 bytes).
    Removing bsp.o(.emb_text), (8 bytes).
    Removing bsp_int.o(.emb_text), (8 bytes).
    Removing bsp_ser.o(.emb_text), (8 bytes).
    Removing bsp_os.o(.emb_text), (8 bytes).
    Removing bsp_sdio.o(.emb_text), (8 bytes).
    Removing delay.o(.emb_text), (8 bytes).
    Removing delay.o(.text), (148 bytes).
    Removing gpio.o(.emb_text), (8 bytes).
    Removing gpio.o(.text), (158 bytes).
    Removing timer.o(.emb_text), (8 bytes).
    Removing usart.o(.emb_text), (8 bytes).
    Removing usart.o(.text), (832 bytes).
    Removing usart.o(.data), (12 bytes).
    Removing util.o(.emb_text), (8 bytes).
    Removing bsp_dac.o(.emb_text), (8 bytes).
    Removing bsp_dma.o(.emb_text), (8 bytes).
    Removing misc.o(.emb_text), (8 bytes).
    Removing stm32f2xx_adc.o(.emb_text), (8 bytes).
    Removing stm32f2xx_adc.o(.text), (1124 bytes).
    Removing stm32f2xx_can.o(.emb_text), (8 bytes).
    Removing stm32f2xx_can.o(.text), (2544 bytes).
    Removing stm32f2xx_crc.o(.emb_text), (8 bytes).
    Removing stm32f2xx_crc.o(.text), (72 bytes).
    Removing stm32f2xx_cryp.o(.emb_text), (8 bytes).
    Removing stm32f2xx_cryp.o(.text), (660 bytes).
    Removing stm32f2xx_cryp_aes.o(.emb_text), (8 bytes).
    Removing stm32f2xx_cryp_aes.o(.text), (1524 bytes).
    Removing stm32f2xx_cryp_des.o(.emb_text), (8 bytes).
    Removing stm32f2xx_cryp_des.o(.text), (468 bytes).
    Removing stm32f2xx_cryp_tdes.o(.emb_text), (8 bytes).
    Removing stm32f2xx_cryp_tdes.o(.text), (532 bytes).
    Removing stm32f2xx_dac.o(.emb_text), (8 bytes).
    Removing stm32f2xx_dbgmcu.o(.emb_text), (8 bytes).
    Removing stm32f2xx_dbgmcu.o(.text), (100 bytes).
    Removing stm32f2xx_dcmi.o(.emb_text), (8 bytes).
    Removing stm32f2xx_dcmi.o(.text), (400 bytes).
    Removing stm32f2xx_dma.o(.emb_text), (8 bytes).
    Removing stm32f2xx_exti.o(.emb_text), (8 bytes).
    Removing stm32f2xx_exti.o(.text), (284 bytes).
    Removing stm32f2xx_flash.o(.emb_text), (8 bytes).
    Removing stm32f2xx_flash.o(.text), (1212 bytes).
    Removing stm32f2xx_fsmc.o(.emb_text), (8 bytes).
    Removing stm32f2xx_fsmc.o(.text), (1544 bytes).
    Removing stm32f2xx_gpio.o(.emb_text), (8 bytes).
    Removing stm32f2xx_hash.o(.emb_text), (8 bytes).
    Removing stm32f2xx_hash.o(.text), (496 bytes).
    Removing stm32f2xx_hash_md5.o(.emb_text), (8 bytes).
    Removing stm32f2xx_hash_md5.o(.text), (534 bytes).
    Removing stm32f2xx_hash_sha1.o(.emb_text), (8 bytes).
    Removing stm32f2xx_hash_sha1.o(.text), (548 bytes).
    Removing stm32f2xx_i2c.o(.emb_text), (8 bytes).
    Removing stm32f2xx_i2c.o(.text), (1064 bytes).
    Removing stm32f2xx_iwdg.o(.emb_text), (8 bytes).
    Removing stm32f2xx_iwdg.o(.text), (64 bytes).
    Removing stm32f2xx_pwr.o(.emb_text), (8 bytes).
    Removing stm32f2xx_pwr.o(.text), (216 bytes).
    Removing stm32f2xx_rcc.o(.emb_text), (8 bytes).
    Removing stm32f2xx_rng.o(.emb_text), (8 bytes).
    Removing stm32f2xx_rng.o(.text), (160 bytes).
    Removing stm32f2xx_rtc.o(.emb_text), (8 bytes).
    Removing stm32f2xx_rtc.o(.text), (2844 bytes).
    Removing stm32f2xx_sdio.o(.emb_text), (8 bytes).
    Removing stm32f2xx_spi.o(.emb_text), (8 bytes).
    Removing stm32f2xx_spi.o(.text), (936 bytes).
    Removing stm32f2xx_syscfg.o(.emb_text), (8 bytes).
    Removing stm32f2xx_syscfg.o(.text), (140 bytes).
    Removing stm32f2xx_tim.o(.emb_text), (8 bytes).
    Removing stm32f2xx_usart.o(.emb_text), (8 bytes).
    Removing stm32f2xx_wwdg.o(.emb_text), (8 bytes).
    Removing stm32f2xx_wwdg.o(.text), (144 bytes).
    Removing lib_math.o(.text), (128 bytes).
    Removing lib_math.o(.data), (4 bytes).
    Removing os_pend_multi.o(.text), (716 bytes).
    Removing diskio.o(.emb_text), (8 bytes).
    Removing system_stm32f2xx.o(.emb_text), (8 bytes).
    Removing usbd_core.o(.emb_text), (8 bytes).
    Removing usbd_core.o(.text), (820 bytes).
    Removing usbd_core.o(.data), (52 bytes).
    Removing usbd_ioreq.o(.emb_text), (8 bytes).
    Removing usbd_ioreq.o(.text), (244 bytes).
    Removing usbd_req.o(.emb_text), (8 bytes).
    Removing usbd_req.o(.text), (1728 bytes).
    Removing usbd_req.o(.bss), (255 bytes).
    Removing usbd_req.o(.data), (13 bytes).
    Removing usbd_cdc_core.o(.emb_text), (8 bytes).
    Removing usbd_cdc_core.o(.text), (824 bytes).
    Removing usbd_cdc_core.o(.bss), (4227 bytes).
    Removing usbd_cdc_core.o(.data), (152 bytes).
    Removing usb_core.o(.emb_text), (8 bytes).
    Removing usb_core.o(.text), (4070 bytes).
    Removing usb_dcd.o(.emb_text), (8 bytes).
    Removing usb_dcd.o(.text), (894 bytes).
    Removing usb_dcd_int.o(.emb_text), (8 bytes).
    Removing usb_dcd_int.o(.text), (2016 bytes).
    Removing usb_bsp.o(.emb_text), (8 bytes).
    Removing usb_bsp.o(.text), (172 bytes).
    Removing usb_delay.o(.text), (84 bytes).
    Removing usbd_cdc_vcp.o(.emb_text), (8 bytes).
    Removing usbd_cdc_vcp.o(.text), (256 bytes).
    Removing usbd_cdc_vcp.o(.data), (28 bytes).
    Removing usbd_desc.o(.emb_text), (8 bytes).
    Removing usbd_desc.o(.text), (328 bytes).
    Removing usbd_desc.o(.data), (60 bytes).
    Removing usbd_usr.o(.emb_text), (8 bytes).
    Removing usbd_usr.o(.text), (30 bytes).
    Removing usbd_usr.o(.data), (28 bytes).
    Removing crc16.o(.text), (44 bytes).
    Removing crc16.o(.constdata), (512 bytes).
    Removing xmodem.o(.text), (1064 bytes).
    Removing xmodem.o(.bss), (1030 bytes).
    Removing xmodem.o(.data), (4 bytes).
    Removing xmodem_hw.o(.emb_text), (8 bytes).
    Removing xmodem_hw.o(.text), (144 bytes).
    Removing xmodem_hw.o(.data), (8 bytes).

125 unused section(s) (total 40766 bytes) removed from the image.

==============================================================================

Image Symbol Table

    Local Symbols

    Symbol Name                              Value     Ov Type        Size  Object(Section)

    ../clib/angel/boardlib.s                 0x00000000   Number         0  boardshut.o ABSOLUTE
    ../clib/angel/boardlib.s                 0x00000000   Number         0  boardinit1.o ABSOLUTE
    ../clib/angel/boardlib.s                 0x00000000   Number         0  boardinit2.o ABSOLUTE
    ../clib/angel/boardlib.s                 0x00000000   Number         0  boardinit3.o ABSOLUTE
    ../clib/angel/handlers.s                 0x00000000   Number         0  __scatter_copy.o ABSOLUTE
    ../clib/angel/handlers.s                 0x00000000   Number         0  __scatter_zi.o ABSOLUTE
    ../clib/angel/kernel.s                   0x00000000   Number         0  __rtentry2.o ABSOLUTE
    ../clib/angel/kernel.s                   0x00000000   Number         0  __rtentry.o ABSOLUTE
    ../clib/angel/kernel.s                   0x00000000   Number         0  __rtentry4.o ABSOLUTE
    ../clib/angel/kernel.s                   0x00000000   Number         0  rtexit.o ABSOLUTE
    ../clib/angel/kernel.s                   0x00000000   Number         0  rtexit2.o ABSOLUTE
    ../clib/angel/rt.s                       0x00000000   Number         0  rt_locale_intlibspace.o ABSOLUTE
    ../clib/angel/rt.s                       0x00000000   Number         0  rt_heap_descriptor_intlibspace.o ABSOLUTE
    ../clib/angel/rt.s                       0x00000000   Number         0  rt_heap_descriptor.o ABSOLUTE
    ../clib/angel/rt.s                       0x00000000   Number         0  rt_errno_addr.o ABSOLUTE
    ../clib/angel/rt.s                       0x00000000   Number         0  rt_errno_addr_intlibspace.o ABSOLUTE
    ../clib/angel/rt.s                       0x00000000   Number         0  rt_raise.o ABSOLUTE
    ../clib/angel/rt.s                       0x00000000   Number         0  rt_ctype_table.o ABSOLUTE
    ../clib/angel/rt.s                       0x00000000   Number         0  rt_locale.o ABSOLUTE
    ../clib/angel/scatter.s                  0x00000000   Number         0  __scatter.o ABSOLUTE
    ../clib/angel/startup.s                  0x00000000   Number         0  __main.o ABSOLUTE
    ../clib/angel/sys.s                      0x00000000   Number         0  sys_stackheap_outer.o ABSOLUTE
    ../clib/angel/sys.s                      0x00000000   Number         0  libspace.o ABSOLUTE
    ../clib/angel/sys.s                      0x00000000   Number         0  use_no_semi.o ABSOLUTE
    ../clib/angel/sys.s                      0x00000000   Number         0  indicate_semi.o ABSOLUTE
    ../clib/angel/sys.s                      0x00000000   Number         0  mutex_dummy.o ABSOLUTE
    ../clib/angel/sysapp.c                   0x00000000   Number         0  sys_exit.o ABSOLUTE
    ../clib/angel/sysapp.c                   0x00000000   Number         0  sys_io.o ABSOLUTE
    ../clib/angel/sysapp.c                   0x00000000   Number         0  sys_wrch.o ABSOLUTE
    ../clib/angel/sysapp.c                   0x00000000   Number         0  sys_command.o ABSOLUTE
    ../clib/armsys.c                         0x00000000   Number         0  _get_argv.o ABSOLUTE
    ../clib/armsys.c                         0x00000000   Number         0  _get_argv_nomalloc.o ABSOLUTE
    ../clib/armsys.c                         0x00000000   Number         0  no_argv.o ABSOLUTE
    ../clib/armsys.c                         0x00000000   Number         0  argv_veneer.o ABSOLUTE
    ../clib/armsys.c                         0x00000000   Number         0  argv_veneer.o ABSOLUTE
    ../clib/assert.c                         0x00000000   Number         0  assert_stdio.o ABSOLUTE
    ../clib/bigflt.c                         0x00000000   Number         0  bigflt0.o ABSOLUTE
    ../clib/btod.s                           0x00000000   Number         0  btod.o ABSOLUTE
    ../clib/heap1.c                          0x00000000   Number         0  h1_free_mt.o ABSOLUTE
    ../clib/heap1.c                          0x00000000   Number         0  h1_init.o ABSOLUTE
    ../clib/heap1.c                          0x00000000   Number         0  h1_final.o ABSOLUTE
    ../clib/heap1.c                          0x00000000   Number         0  h1_final_mt.o ABSOLUTE
    ../clib/heap1.c                          0x00000000   Number         0  h1_free.o ABSOLUTE
    ../clib/heap1.c                          0x00000000   Number         0  h1_extend.o ABSOLUTE
    ../clib/heap1.c                          0x00000000   Number         0  h1_init_mt.o ABSOLUTE
    ../clib/heap1.c                          0x00000000   Number         0  h1_extend_mt.o ABSOLUTE
    ../clib/heap1.c                          0x00000000   Number         0  h1_alloc.o ABSOLUTE
    ../clib/heap1.c                          0x00000000   Number         0  h1_alloc_mt.o ABSOLUTE
    ../clib/heap2.c                          0x00000000   Number         0  fdtree.o ABSOLUTE
    ../clib/heap2.c                          0x00000000   Number         0  heap2.o ABSOLUTE
    ../clib/heap2.c                          0x00000000   Number         0  heap2mt.o ABSOLUTE
    ../clib/heapalloc.c                      0x00000000   Number         0  maybetermalloc2.o ABSOLUTE
    ../clib/heapalloc.c                      0x00000000   Number         0  free.o ABSOLUTE
    ../clib/heapalloc.c                      0x00000000   Number         0  init_alloc.o ABSOLUTE
    ../clib/heapalloc.c                      0x00000000   Number         0  malloc.o ABSOLUTE
    ../clib/heapalloc.c                      0x00000000   Number         0  maybetermalloc2.o ABSOLUTE
    ../clib/heapalloc.c                      0x00000000   Number         0  term_alloc.o ABSOLUTE
    ../clib/heapalloc.c                      0x00000000   Number         0  hrguard.o ABSOLUTE
    ../clib/heapalloc.c                      0x00000000   Number         0  heapstubs.o ABSOLUTE
    ../clib/heapalloc.c                      0x00000000   Number         0  maybetermalloc1.o ABSOLUTE
    ../clib/heapalloc.c                      0x00000000   Number         0  hguard.o ABSOLUTE
    ../clib/heapalloc.c                      0x00000000   Number         0  maybetermalloc1.o ABSOLUTE
    ../clib/heapaux.c                        0x00000000   Number         0  heapauxa.o ABSOLUTE
    ../clib/heapaux.c                        0x00000000   Number         0  heapauxi.o ABSOLUTE
    ../clib/libinit.s                        0x00000000   Number         0  libshutdown2.o ABSOLUTE
    ../clib/libinit.s                        0x00000000   Number         0  libinit2.o ABSOLUTE
    ../clib/libinit.s                        0x00000000   Number         0  libinit.o ABSOLUTE
    ../clib/libinit.s                        0x00000000   Number         0  libshutdown.o ABSOLUTE
    ../clib/locale.c                         0x00000000   Number         0  _wcrtomb.o ABSOLUTE
    ../clib/locale.s                         0x00000000   Number         0  lc_numeric_c.o ABSOLUTE
    ../clib/locale.s                         0x00000000   Number         0  lc_ctype_c.o ABSOLUTE
    ../clib/longlong.s                       0x00000000   Number         0  lludiv10.o ABSOLUTE
    ../clib/memcpset.s                       0x00000000   Number         0  rt_memcpy_w.o ABSOLUTE
    ../clib/memcpset.s                       0x00000000   Number         0  strcmpv7m.o ABSOLUTE
    ../clib/memcpset.s                       0x00000000   Number         0  rt_memmove_v6.o ABSOLUTE
    ../clib/memcpset.s                       0x00000000   Number         0  rt_memcpy_v6.o ABSOLUTE
    ../clib/memcpset.s                       0x00000000   Number         0  rt_memclr_w.o ABSOLUTE
    ../clib/memcpset.s                       0x00000000   Number         0  rt_memmove_w.o ABSOLUTE
    ../clib/misc.s                           0x00000000   Number         0  printf_stubs.o ABSOLUTE
    ../clib/printf.c                         0x00000000   Number         0  __printf_flags_wp.o ABSOLUTE
    ../clib/printf.c                         0x00000000   Number         0  _printf_oct_int.o ABSOLUTE
    ../clib/printf.c                         0x00000000   Number         0  _printf_char.o ABSOLUTE
    ../clib/printf.c                         0x00000000   Number         0  __printf_nopercent.o ABSOLUTE
    ../clib/printf.c                         0x00000000   Number         0  _printf_fp_dec.o ABSOLUTE
    ../clib/printf.c                         0x00000000   Number         0  _printf_oct_int_ll.o ABSOLUTE
    ../clib/printf.c                         0x00000000   Number         0  _printf_longlong_dec.o ABSOLUTE
    ../clib/printf.c                         0x00000000   Number         0  _printf_hex_ll.o ABSOLUTE
    ../clib/printf.c                         0x00000000   Number         0  _printf_hex_int_ptr.o ABSOLUTE
    ../clib/printf.c                         0x00000000   Number         0  _printf_intcommon.o ABSOLUTE
    ../clib/printf.c                         0x00000000   Number         0  _printf_hex_int.o ABSOLUTE
    ../clib/printf.c                         0x00000000   Number         0  __printf_wp.o ABSOLUTE
    ../clib/printf.c                         0x00000000   Number         0  __printf_ss.o ABSOLUTE
    ../clib/printf.c                         0x00000000   Number         0  _printf_hex_ll_ptr.o ABSOLUTE
    ../clib/printf.c                         0x00000000   Number         0  _printf_wctomb.o ABSOLUTE
    ../clib/printf.c                         0x00000000   Number         0  _printf_hex_int_ll_ptr.o ABSOLUTE
    ../clib/printf.c                         0x00000000   Number         0  _printf_hex_ptr.o ABSOLUTE
    ../clib/printf.c                         0x00000000   Number         0  _printf_hex_int_ll.o ABSOLUTE
    ../clib/printf.c                         0x00000000   Number         0  _printf_char_file_locked.o ABSOLUTE
    ../clib/printf.c                         0x00000000   Number         0  __printf_flags.o ABSOLUTE
    ../clib/printf.c                         0x00000000   Number         0  _printf_char_file.o ABSOLUTE
    ../clib/printf.c                         0x00000000   Number         0  _printf_dec.o ABSOLUTE
    ../clib/printf.c                         0x00000000   Number         0  __printf.o ABSOLUTE
    ../clib/printf.c                         0x00000000   Number         0  _snputc.o ABSOLUTE
    ../clib/printf.c                         0x00000000   Number         0  noretval__2printf.o ABSOLUTE
    ../clib/printf.c                         0x00000000   Number         0  _sputc.o ABSOLUTE
    ../clib/printf.c                         0x00000000   Number         0  __2printf.o ABSOLUTE
    ../clib/printf.c                         0x00000000   Number         0  _printf_char_common.o ABSOLUTE
    ../clib/printf.c                         0x00000000   Number         0  c89vsnprintf.o ABSOLUTE
    ../clib/printf.c                         0x00000000   Number         0  _printf_charcount.o ABSOLUTE
    ../clib/printf.c                         0x00000000   Number         0  _printf_fp_infnan.o ABSOLUTE
    ../clib/printf.c                         0x00000000   Number         0  _printf_str.o ABSOLUTE
    ../clib/printf.c                         0x00000000   Number         0  _printf_pad.o ABSOLUTE
    ../clib/printf.c                         0x00000000   Number         0  _printf_truncate.o ABSOLUTE
    ../clib/printf.c                         0x00000000   Number         0  __printf_ss_wp.o ABSOLUTE
    ../clib/printf.c                         0x00000000   Number         0  __printf_flags_ss_wp.o ABSOLUTE
    ../clib/printf.c                         0x00000000   Number         0  _printf_wchar.o ABSOLUTE
    ../clib/printf.c                         0x00000000   Number         0  __printf_flags_ss.o ABSOLUTE
    ../clib/printf.c                         0x00000000   Number         0  _printf_oct_ll.o ABSOLUTE
    ../clib/printf_percent.s                 0x00000000   Number         0  _printf_e.o ABSOLUTE
    ../clib/printf_percent.s                 0x00000000   Number         0  _printf_f.o ABSOLUTE
    ../clib/printf_percent.s                 0x00000000   Number         0  _printf_u.o ABSOLUTE
    ../clib/printf_percent.s                 0x00000000   Number         0  _printf_i.o ABSOLUTE
    ../clib/printf_percent.s                 0x00000000   Number         0  _printf_o.o ABSOLUTE
    ../clib/printf_percent.s                 0x00000000   Number         0  _printf_p.o ABSOLUTE
    ../clib/printf_percent.s                 0x00000000   Number         0  _printf_x.o ABSOLUTE
    ../clib/printf_percent.s                 0x00000000   Number         0  _printf_n.o ABSOLUTE
    ../clib/printf_percent.s                 0x00000000   Number         0  _printf_s.o ABSOLUTE
    ../clib/printf_percent.s                 0x00000000   Number         0  _printf_c.o ABSOLUTE
    ../clib/printf_percent.s                 0x00000000   Number         0  _printf_d.o ABSOLUTE
    ../clib/printf_percent.s                 0x00000000   Number         0  _printf_g.o ABSOLUTE
    ../clib/printf_percent.s                 0x00000000   Number         0  _printf_llx.o ABSOLUTE
    ../clib/printf_percent.s                 0x00000000   Number         0  _printf_llo.o ABSOLUTE
    ../clib/printf_percent.s                 0x00000000   Number         0  _printf_ls.o ABSOLUTE
    ../clib/printf_percent.s                 0x00000000   Number         0  _printf_lc.o ABSOLUTE
    ../clib/printf_percent.s                 0x00000000   Number         0  _printf_l.o ABSOLUTE
    ../clib/printf_percent.s                 0x00000000   Number         0  _printf_ll.o ABSOLUTE
    ../clib/printf_percent.s                 0x00000000   Number         0  _printf_llu.o ABSOLUTE
    ../clib/printf_percent.s                 0x00000000   Number         0  _printf_percent.o ABSOLUTE
    ../clib/printf_percent.s                 0x00000000   Number         0  _printf_lld.o ABSOLUTE
    ../clib/printf_percent.s                 0x00000000   Number         0  _printf_lli.o ABSOLUTE
    ../clib/printf_percent.s                 0x00000000   Number         0  _printf_percent_end.o ABSOLUTE
    ../clib/printf_percent.s                 0x00000000   Number         0  _printf_a.o ABSOLUTE
    ../clib/signal.c                         0x00000000   Number         0  defsig_segv_inner.o ABSOLUTE
    ../clib/signal.c                         0x00000000   Number         0  defsig_exit.o ABSOLUTE
    ../clib/signal.c                         0x00000000   Number         0  defsig_cppl_inner.o ABSOLUTE
    ../clib/signal.c                         0x00000000   Number         0  defsig_pvfn_inner.o ABSOLUTE
    ../clib/signal.c                         0x00000000   Number         0  defsig_rtmem_inner.o ABSOLUTE
    ../clib/signal.c                         0x00000000   Number         0  defsig_stak_inner.o ABSOLUTE
    ../clib/signal.c                         0x00000000   Number         0  defsig_fpe_inner.o ABSOLUTE
    ../clib/signal.c                         0x00000000   Number         0  defsig_abrt_inner.o ABSOLUTE
    ../clib/signal.c                         0x00000000   Number         0  defsig_rtred_outer.o ABSOLUTE
    ../clib/signal.c                         0x00000000   Number         0  defsig_rtred_formal.o ABSOLUTE
    ../clib/signal.c                         0x00000000   Number         0  __raise.o ABSOLUTE
    ../clib/signal.c                         0x00000000   Number         0  defsig_general.o ABSOLUTE
    ../clib/signal.c                         0x00000000   Number         0  defsig_rtmem_outer.o ABSOLUTE
    ../clib/signal.c                         0x00000000   Number         0  defsig_rtmem_formal.o ABSOLUTE
    ../clib/signal.c                         0x00000000   Number         0  defsig_rtred_inner.o ABSOLUTE
    ../clib/signal.c                         0x00000000   Number         0  defsig_other.o ABSOLUTE
    ../clib/signal.s                         0x00000000   Number         0  defsig.o ABSOLUTE
    ../clib/stdio.c                          0x00000000   Number         0  initio_locked.o ABSOLUTE
    ../clib/stdio.c                          0x00000000   Number         0  ferror_locked.o ABSOLUTE
    ../clib/stdio.c                          0x00000000   Number         0  fputc_locked.o ABSOLUTE
    ../clib/stdio.c                          0x00000000   Number         0  initio.o ABSOLUTE
    ../clib/stdio.c                          0x00000000   Number         0  fputc.o ABSOLUTE
    ../clib/stdio.c                          0x00000000   Number         0  ferror.o ABSOLUTE
    ../clib/stdio.c                          0x00000000   Number         0  setvbuf_locked.o ABSOLUTE
    ../clib/stdio.c                          0x00000000   Number         0  fclose.o ABSOLUTE
    ../clib/stdio.c                          0x00000000   Number         0  fopen.o ABSOLUTE
    ../clib/stdio.c                          0x00000000   Number         0  setvbuf.o ABSOLUTE
    ../clib/stdio.c                          0x00000000   Number         0  flsbuf.o ABSOLUTE
    ../clib/stdio.c                          0x00000000   Number         0  fwritefast.o ABSOLUTE
    ../clib/stdio.c                          0x00000000   Number         0  fflush_locked.o ABSOLUTE
    ../clib/stdio.c                          0x00000000   Number         0  stdio_streams.o ABSOLUTE
    ../clib/stdio.c                          0x00000000   Number         0  fputs_locked.o ABSOLUTE
    ../clib/stdio.c                          0x00000000   Number         0  fopen_locked.o ABSOLUTE
    ../clib/stdio.c                          0x00000000   Number         0  stdio.o ABSOLUTE
    ../clib/stdio.c                          0x00000000   Number         0  fseek.o ABSOLUTE
    ../clib/stdio.c                          0x00000000   Number         0  ftell.o ABSOLUTE
    ../clib/stdio.c                          0x00000000   Number         0  fputs.o ABSOLUTE
    ../clib/stdio.c                          0x00000000   Number         0  fflush.o ABSOLUTE
    ../clib/stdio.c                          0x00000000   Number         0  fwritefast_locked.o ABSOLUTE
    ../clib/stdio.c                          0x00000000   Number         0  streamlock.o ABSOLUTE
    ../clib/stdlib.c                         0x00000000   Number         0  exit.o ABSOLUTE
    ../clib/string.c                         0x00000000   Number         0  strlen.o ABSOLUTE
    ../clib/string.c                         0x00000000   Number         0  strcpy.o ABSOLUTE
    ../clib/string.c                         0x00000000   Number         0  strcat.o ABSOLUTE
    ../clib/wchar.c                          0x00000000   Number         0  flsbuf_fwide.o ABSOLUTE
    ../fplib/fpinit.s                        0x00000000   Number         0  fpinit.o ABSOLUTE
    ../fplib/istatus.s                       0x00000000   Number         0  istatus.o ABSOLUTE
    ../fplib/printf1.s                       0x00000000   Number         0  printf1.o ABSOLUTE
    ../fplib/usenofp.s                       0x00000000   Number         0  usenofp.o ABSOLUTE
    ../mathlib/fpclassify.c                  0x00000000   Number         0  fpclassify.o ABSOLUTE
    ..\App\app.c                             0x00000000   Number         0  app.o ABSOLUTE
    ..\App\mp3_player.c                      0x00000000   Number         0  mp3_player.o ABSOLUTE
    ..\App\os_app_hooks.c                    0x00000000   Number         0  os_app_hooks.o ABSOLUTE
    ..\App\pc_protocol.c                     0x00000000   Number         0  pc_protocol.o ABSOLUTE
    ..\App\servo_protocol.c                  0x00000000   Number         0  servo_protocol.o ABSOLUTE
    ..\BSP\CMSIS\Device_Support\system_stm32f2xx.c 0x00000000   Number         0  system_stm32f2xx.o ABSOLUTE
    ..\BSP\OS\uCOS-III\bsp_os.c              0x00000000   Number         0  bsp_os.o ABSOLUTE
    ..\BSP\STM32F2xx\src\misc.c              0x00000000   Number         0  misc.o ABSOLUTE
    ..\BSP\STM32F2xx\src\stm32f2xx_adc.c     0x00000000   Number         0  stm32f2xx_adc.o ABSOLUTE
    ..\BSP\STM32F2xx\src\stm32f2xx_can.c     0x00000000   Number         0  stm32f2xx_can.o ABSOLUTE
    ..\BSP\STM32F2xx\src\stm32f2xx_crc.c     0x00000000   Number         0  stm32f2xx_crc.o ABSOLUTE
    ..\BSP\STM32F2xx\src\stm32f2xx_cryp.c    0x00000000   Number         0  stm32f2xx_cryp.o ABSOLUTE
    ..\BSP\STM32F2xx\src\stm32f2xx_cryp_aes.c 0x00000000   Number         0  stm32f2xx_cryp_aes.o ABSOLUTE
    ..\BSP\STM32F2xx\src\stm32f2xx_cryp_des.c 0x00000000   Number         0  stm32f2xx_cryp_des.o ABSOLUTE
    ..\BSP\STM32F2xx\src\stm32f2xx_cryp_tdes.c 0x00000000   Number         0  stm32f2xx_cryp_tdes.o ABSOLUTE
    ..\BSP\STM32F2xx\src\stm32f2xx_dac.c     0x00000000   Number         0  stm32f2xx_dac.o ABSOLUTE
    ..\BSP\STM32F2xx\src\stm32f2xx_dbgmcu.c  0x00000000   Number         0  stm32f2xx_dbgmcu.o ABSOLUTE
    ..\BSP\STM32F2xx\src\stm32f2xx_dcmi.c    0x00000000   Number         0  stm32f2xx_dcmi.o ABSOLUTE
    ..\BSP\STM32F2xx\src\stm32f2xx_dma.c     0x00000000   Number         0  stm32f2xx_dma.o ABSOLUTE
    ..\BSP\STM32F2xx\src\stm32f2xx_exti.c    0x00000000   Number         0  stm32f2xx_exti.o ABSOLUTE
    ..\BSP\STM32F2xx\src\stm32f2xx_flash.c   0x00000000   Number         0  stm32f2xx_flash.o ABSOLUTE
    ..\BSP\STM32F2xx\src\stm32f2xx_fsmc.c    0x00000000   Number         0  stm32f2xx_fsmc.o ABSOLUTE
    ..\BSP\STM32F2xx\src\stm32f2xx_gpio.c    0x00000000   Number         0  stm32f2xx_gpio.o ABSOLUTE
    ..\BSP\STM32F2xx\src\stm32f2xx_hash.c    0x00000000   Number         0  stm32f2xx_hash.o ABSOLUTE
    ..\BSP\STM32F2xx\src\stm32f2xx_hash_md5.c 0x00000000   Number         0  stm32f2xx_hash_md5.o ABSOLUTE
    ..\BSP\STM32F2xx\src\stm32f2xx_hash_sha1.c 0x00000000   Number         0  stm32f2xx_hash_sha1.o ABSOLUTE
    ..\BSP\STM32F2xx\src\stm32f2xx_i2c.c     0x00000000   Number         0  stm32f2xx_i2c.o ABSOLUTE
    ..\BSP\STM32F2xx\src\stm32f2xx_iwdg.c    0x00000000   Number         0  stm32f2xx_iwdg.o ABSOLUTE
    ..\BSP\STM32F2xx\src\stm32f2xx_pwr.c     0x00000000   Number         0  stm32f2xx_pwr.o ABSOLUTE
    ..\BSP\STM32F2xx\src\stm32f2xx_rcc.c     0x00000000   Number         0  stm32f2xx_rcc.o ABSOLUTE
    ..\BSP\STM32F2xx\src\stm32f2xx_rng.c     0x00000000   Number         0  stm32f2xx_rng.o ABSOLUTE
    ..\BSP\STM32F2xx\src\stm32f2xx_rtc.c     0x00000000   Number         0  stm32f2xx_rtc.o ABSOLUTE
    ..\BSP\STM32F2xx\src\stm32f2xx_sdio.c    0x00000000   Number         0  stm32f2xx_sdio.o ABSOLUTE
    ..\BSP\STM32F2xx\src\stm32f2xx_spi.c     0x00000000   Number         0  stm32f2xx_spi.o ABSOLUTE
    ..\BSP\STM32F2xx\src\stm32f2xx_syscfg.c  0x00000000   Number         0  stm32f2xx_syscfg.o ABSOLUTE
    ..\BSP\STM32F2xx\src\stm32f2xx_tim.c     0x00000000   Number         0  stm32f2xx_tim.o ABSOLUTE
    ..\BSP\STM32F2xx\src\stm32f2xx_usart.c   0x00000000   Number         0  stm32f2xx_usart.o ABSOLUTE
    ..\BSP\STM32F2xx\src\stm32f2xx_wwdg.c    0x00000000   Number         0  stm32f2xx_wwdg.o ABSOLUTE
    ..\BSP\bsp.c                             0x00000000   Number         0  bsp.o ABSOLUTE
    ..\BSP\bsp_dac.c                         0x00000000   Number         0  bsp_dac.o ABSOLUTE
    ..\BSP\bsp_dma.c                         0x00000000   Number         0  bsp_dma.o ABSOLUTE
    ..\BSP\bsp_int.c                         0x00000000   Number         0  bsp_int.o ABSOLUTE
    ..\BSP\bsp_sdio.c                        0x00000000   Number         0  bsp_sdio.o ABSOLUTE
    ..\BSP\bsp_ser.c                         0x00000000   Number         0  bsp_ser.o ABSOLUTE
    ..\BSP\cstartup.s                        0x00000000   Number         0  cstartup.o ABSOLUTE
    ..\BSP\delay.c                           0x00000000   Number         0  delay.o ABSOLUTE
    ..\BSP\gpio.c                            0x00000000   Number         0  gpio.o ABSOLUTE
    ..\BSP\timer.c                           0x00000000   Number         0  timer.o ABSOLUTE
    ..\BSP\usart.c                           0x00000000   Number         0  usart.o ABSOLUTE
    ..\BSP\util.c                            0x00000000   Number         0  util.o ABSOLUTE
    ..\Fatfs\diskio.c                        0x00000000   Number         0  diskio.o ABSOLUTE
    ..\Fatfs\ff.c                            0x00000000   Number         0  ff.o ABSOLUTE
    ..\Fatfs\option\ccsbcs.c                 0x00000000   Number         0  ccsbcs.o ABSOLUTE
    ..\Helix\mp3dec.c                        0x00000000   Number         0  mp3dec.o ABSOLUTE
    ..\Helix\mp3tabs.c                       0x00000000   Number         0  mp3tabs.o ABSOLUTE
    ..\Helix\real\arm\asmmisc.s              0x00000000   Number         0  asmmisc.o ABSOLUTE
    ..\Helix\real\arm\asmpoly_thumb2.s       0x00000000   Number         0  asmpoly_thumb2.o ABSOLUTE
    ..\Helix\real\bitstream.c                0x00000000   Number         0  bitstream.o ABSOLUTE
    ..\Helix\real\buffers.c                  0x00000000   Number         0  buffers.o ABSOLUTE
    ..\Helix\real\dct32.c                    0x00000000   Number         0  dct32.o ABSOLUTE
    ..\Helix\real\dequant.c                  0x00000000   Number         0  dequant.o ABSOLUTE
    ..\Helix\real\dqchan.c                   0x00000000   Number         0  dqchan.o ABSOLUTE
    ..\Helix\real\huffman.c                  0x00000000   Number         0  huffman.o ABSOLUTE
    ..\Helix\real\hufftabs.c                 0x00000000   Number         0  hufftabs.o ABSOLUTE
    ..\Helix\real\imdct.c                    0x00000000   Number         0  imdct.o ABSOLUTE
    ..\Helix\real\scalfact.c                 0x00000000   Number         0  scalfact.o ABSOLUTE
    ..\Helix\real\stproc.c                   0x00000000   Number         0  stproc.o ABSOLUTE
    ..\Helix\real\subband.c                  0x00000000   Number         0  subband.o ABSOLUTE
    ..\Helix\real\trigtabs.c                 0x00000000   Number         0  trigtabs.o ABSOLUTE
    ..\USB_DeviceLIB\Class\cdc\src\usbd_cdc_core.c 0x00000000   Number         0  usbd_cdc_core.o ABSOLUTE
    ..\USB_DeviceLIB\Core\src\usbd_core.c    0x00000000   Number         0  usbd_core.o ABSOLUTE
    ..\USB_DeviceLIB\Core\src\usbd_ioreq.c   0x00000000   Number         0  usbd_ioreq.o ABSOLUTE
    ..\USB_DeviceLIB\Core\src\usbd_req.c     0x00000000   Number         0  usbd_req.o ABSOLUTE
    ..\USB_OTG_Driver\src\usb_core.c         0x00000000   Number         0  usb_core.o ABSOLUTE
    ..\USB_OTG_Driver\src\usb_dcd.c          0x00000000   Number         0  usb_dcd.o ABSOLUTE
    ..\USB_OTG_Driver\src\usb_dcd_int.c      0x00000000   Number         0  usb_dcd_int.o ABSOLUTE
    ..\USB_VCP\usb_bsp.c                     0x00000000   Number         0  usb_bsp.o ABSOLUTE
    ..\USB_VCP\usb_delay.c                   0x00000000   Number         0  usb_delay.o ABSOLUTE
    ..\USB_VCP\usbd_cdc_vcp.c                0x00000000   Number         0  usbd_cdc_vcp.o ABSOLUTE
    ..\USB_VCP\usbd_desc.c                   0x00000000   Number         0  usbd_desc.o ABSOLUTE
    ..\USB_VCP\usbd_usr.c                    0x00000000   Number         0  usbd_usr.o ABSOLUTE
    ..\Xmodem\crc16.c                        0x00000000   Number         0  crc16.o ABSOLUTE
    ..\Xmodem\xmodem.c                       0x00000000   Number         0  xmodem.o ABSOLUTE
    ..\Xmodem\xmodem_hw.c                    0x00000000   Number         0  xmodem_hw.o ABSOLUTE
    ..\\App\\app.c                           0x00000000   Number         0  app.o ABSOLUTE
    ..\\App\\mp3_player.c                    0x00000000   Number         0  mp3_player.o ABSOLUTE
    ..\\App\\pc_protocol.c                   0x00000000   Number         0  pc_protocol.o ABSOLUTE
    ..\\App\\servo_protocol.c                0x00000000   Number         0  servo_protocol.o ABSOLUTE
    ..\\BSP\\CMSIS\\Device_Support\\system_stm32f2xx.c 0x00000000   Number         0  system_stm32f2xx.o ABSOLUTE
    ..\\BSP\\OS\\uCOS-III\\bsp_os.c          0x00000000   Number         0  bsp_os.o ABSOLUTE
    ..\\BSP\\STM32F2xx\\src\\misc.c          0x00000000   Number         0  misc.o ABSOLUTE
    ..\\BSP\\STM32F2xx\\src\\stm32f2xx_adc.c 0x00000000   Number         0  stm32f2xx_adc.o ABSOLUTE
    ..\\BSP\\STM32F2xx\\src\\stm32f2xx_can.c 0x00000000   Number         0  stm32f2xx_can.o ABSOLUTE
    ..\\BSP\\STM32F2xx\\src\\stm32f2xx_crc.c 0x00000000   Number         0  stm32f2xx_crc.o ABSOLUTE
    ..\\BSP\\STM32F2xx\\src\\stm32f2xx_cryp.c 0x00000000   Number         0  stm32f2xx_cryp.o ABSOLUTE
    ..\\BSP\\STM32F2xx\\src\\stm32f2xx_cryp_aes.c 0x00000000   Number         0  stm32f2xx_cryp_aes.o ABSOLUTE
    ..\\BSP\\STM32F2xx\\src\\stm32f2xx_cryp_des.c 0x00000000   Number         0  stm32f2xx_cryp_des.o ABSOLUTE
    ..\\BSP\\STM32F2xx\\src\\stm32f2xx_cryp_tdes.c 0x00000000   Number         0  stm32f2xx_cryp_tdes.o ABSOLUTE
    ..\\BSP\\STM32F2xx\\src\\stm32f2xx_dac.c 0x00000000   Number         0  stm32f2xx_dac.o ABSOLUTE
    ..\\BSP\\STM32F2xx\\src\\stm32f2xx_dbgmcu.c 0x00000000   Number         0  stm32f2xx_dbgmcu.o ABSOLUTE
    ..\\BSP\\STM32F2xx\\src\\stm32f2xx_dcmi.c 0x00000000   Number         0  stm32f2xx_dcmi.o ABSOLUTE
    ..\\BSP\\STM32F2xx\\src\\stm32f2xx_dma.c 0x00000000   Number         0  stm32f2xx_dma.o ABSOLUTE
    ..\\BSP\\STM32F2xx\\src\\stm32f2xx_exti.c 0x00000000   Number         0  stm32f2xx_exti.o ABSOLUTE
    ..\\BSP\\STM32F2xx\\src\\stm32f2xx_flash.c 0x00000000   Number         0  stm32f2xx_flash.o ABSOLUTE
    ..\\BSP\\STM32F2xx\\src\\stm32f2xx_fsmc.c 0x00000000   Number         0  stm32f2xx_fsmc.o ABSOLUTE
    ..\\BSP\\STM32F2xx\\src\\stm32f2xx_gpio.c 0x00000000   Number         0  stm32f2xx_gpio.o ABSOLUTE
    ..\\BSP\\STM32F2xx\\src\\stm32f2xx_hash.c 0x00000000   Number         0  stm32f2xx_hash.o ABSOLUTE
    ..\\BSP\\STM32F2xx\\src\\stm32f2xx_hash_md5.c 0x00000000   Number         0  stm32f2xx_hash_md5.o ABSOLUTE
    ..\\BSP\\STM32F2xx\\src\\stm32f2xx_hash_sha1.c 0x00000000   Number         0  stm32f2xx_hash_sha1.o ABSOLUTE
    ..\\BSP\\STM32F2xx\\src\\stm32f2xx_i2c.c 0x00000000   Number         0  stm32f2xx_i2c.o ABSOLUTE
    ..\\BSP\\STM32F2xx\\src\\stm32f2xx_iwdg.c 0x00000000   Number         0  stm32f2xx_iwdg.o ABSOLUTE
    ..\\BSP\\STM32F2xx\\src\\stm32f2xx_pwr.c 0x00000000   Number         0  stm32f2xx_pwr.o ABSOLUTE
    ..\\BSP\\STM32F2xx\\src\\stm32f2xx_rcc.c 0x00000000   Number         0  stm32f2xx_rcc.o ABSOLUTE
    ..\\BSP\\STM32F2xx\\src\\stm32f2xx_rng.c 0x00000000   Number         0  stm32f2xx_rng.o ABSOLUTE
    ..\\BSP\\STM32F2xx\\src\\stm32f2xx_rtc.c 0x00000000   Number         0  stm32f2xx_rtc.o ABSOLUTE
    ..\\BSP\\STM32F2xx\\src\\stm32f2xx_sdio.c 0x00000000   Number         0  stm32f2xx_sdio.o ABSOLUTE
    ..\\BSP\\STM32F2xx\\src\\stm32f2xx_spi.c 0x00000000   Number         0  stm32f2xx_spi.o ABSOLUTE
    ..\\BSP\\STM32F2xx\\src\\stm32f2xx_syscfg.c 0x00000000   Number         0  stm32f2xx_syscfg.o ABSOLUTE
    ..\\BSP\\STM32F2xx\\src\\stm32f2xx_tim.c 0x00000000   Number         0  stm32f2xx_tim.o ABSOLUTE
    ..\\BSP\\STM32F2xx\\src\\stm32f2xx_usart.c 0x00000000   Number         0  stm32f2xx_usart.o ABSOLUTE
    ..\\BSP\\STM32F2xx\\src\\stm32f2xx_wwdg.c 0x00000000   Number         0  stm32f2xx_wwdg.o ABSOLUTE
    ..\\BSP\\bsp.c                           0x00000000   Number         0  bsp.o ABSOLUTE
    ..\\BSP\\bsp_dac.c                       0x00000000   Number         0  bsp_dac.o ABSOLUTE
    ..\\BSP\\bsp_dma.c                       0x00000000   Number         0  bsp_dma.o ABSOLUTE
    ..\\BSP\\bsp_int.c                       0x00000000   Number         0  bsp_int.o ABSOLUTE
    ..\\BSP\\bsp_sdio.c                      0x00000000   Number         0  bsp_sdio.o ABSOLUTE
    ..\\BSP\\bsp_ser.c                       0x00000000   Number         0  bsp_ser.o ABSOLUTE
    ..\\BSP\\delay.c                         0x00000000   Number         0  delay.o ABSOLUTE
    ..\\BSP\\gpio.c                          0x00000000   Number         0  gpio.o ABSOLUTE
    ..\\BSP\\timer.c                         0x00000000   Number         0  timer.o ABSOLUTE
    ..\\BSP\\usart.c                         0x00000000   Number         0  usart.o ABSOLUTE
    ..\\BSP\\util.c                          0x00000000   Number         0  util.o ABSOLUTE
    ..\\Fatfs\\diskio.c                      0x00000000   Number         0  diskio.o ABSOLUTE
    ..\\USB_DeviceLIB\\Class\\cdc\\src\\usbd_cdc_core.c 0x00000000   Number         0  usbd_cdc_core.o ABSOLUTE
    ..\\USB_DeviceLIB\\Core\\src\\usbd_core.c 0x00000000   Number         0  usbd_core.o ABSOLUTE
    ..\\USB_DeviceLIB\\Core\\src\\usbd_ioreq.c 0x00000000   Number         0  usbd_ioreq.o ABSOLUTE
    ..\\USB_DeviceLIB\\Core\\src\\usbd_req.c 0x00000000   Number         0  usbd_req.o ABSOLUTE
    ..\\USB_OTG_Driver\\src\\usb_core.c      0x00000000   Number         0  usb_core.o ABSOLUTE
    ..\\USB_OTG_Driver\\src\\usb_dcd.c       0x00000000   Number         0  usb_dcd.o ABSOLUTE
    ..\\USB_OTG_Driver\\src\\usb_dcd_int.c   0x00000000   Number         0  usb_dcd_int.o ABSOLUTE
    ..\\USB_VCP\\usb_bsp.c                   0x00000000   Number         0  usb_bsp.o ABSOLUTE
    ..\\USB_VCP\\usbd_cdc_vcp.c              0x00000000   Number         0  usbd_cdc_vcp.o ABSOLUTE
    ..\\USB_VCP\\usbd_desc.c                 0x00000000   Number         0  usbd_desc.o ABSOLUTE
    ..\\USB_VCP\\usbd_usr.c                  0x00000000   Number         0  usbd_usr.o ABSOLUTE
    ..\\Xmodem\\xmodem_hw.c                  0x00000000   Number         0  xmodem_hw.o ABSOLUTE
    ..\uC-CPU\ARM-Cortex-M3\cpu_a.asm        0x00000000   Number         0  cpu_a.o ABSOLUTE
    ..\uC-CPU\ARM-Cortex-M3\cpu_c.c          0x00000000   Number         0  cpu_c.o ABSOLUTE
    ..\uC-CPU\cpu_core.c                     0x00000000   Number         0  cpu_core.o ABSOLUTE
    ..\uC-LIB\Ports\ARM-Cortex-M3\lib_mem_a.asm 0x00000000   Number         0  lib_mem_a.o ABSOLUTE
    ..\uC-LIB\lib_ascii.c                    0x00000000   Number         0  lib_ascii.o ABSOLUTE
    ..\uC-LIB\lib_math.c                     0x00000000   Number         0  lib_math.o ABSOLUTE
    ..\uC-LIB\lib_mem.c                      0x00000000   Number         0  lib_mem.o ABSOLUTE
    ..\uC-LIB\lib_str.c                      0x00000000   Number         0  lib_str.o ABSOLUTE
    ..\uCOS-III\Ports\ARM-Cortex-M3\os_cpu_a.s 0x00000000   Number         0  os_cpu_a.o ABSOLUTE
    ..\uCOS-III\Ports\ARM-Cortex-M3\os_cpu_c.c 0x00000000   Number         0  os_cpu_c.o ABSOLUTE
    ..\uCOS-III\Source\os_cfg_app.c          0x00000000   Number         0  os_cfg_app.o ABSOLUTE
    ..\uCOS-III\Source\os_core.c             0x00000000   Number         0  os_core.o ABSOLUTE
    ..\uCOS-III\Source\os_dbg.c              0x00000000   Number         0  os_dbg.o ABSOLUTE
    ..\uCOS-III\Source\os_flag.c             0x00000000   Number         0  os_flag.o ABSOLUTE
    ..\uCOS-III\Source\os_int.c              0x00000000   Number         0  os_int.o ABSOLUTE
    ..\uCOS-III\Source\os_mem.c              0x00000000   Number         0  os_mem.o ABSOLUTE
    ..\uCOS-III\Source\os_msg.c              0x00000000   Number         0  os_msg.o ABSOLUTE
    ..\uCOS-III\Source\os_mutex.c            0x00000000   Number         0  os_mutex.o ABSOLUTE
    ..\uCOS-III\Source\os_pend_multi.c       0x00000000   Number         0  os_pend_multi.o ABSOLUTE
    ..\uCOS-III\Source\os_prio.c             0x00000000   Number         0  os_prio.o ABSOLUTE
    ..\uCOS-III\Source\os_q.c                0x00000000   Number         0  os_q.o ABSOLUTE
    ..\uCOS-III\Source\os_sem.c              0x00000000   Number         0  os_sem.o ABSOLUTE
    ..\uCOS-III\Source\os_stat.c             0x00000000   Number         0  os_stat.o ABSOLUTE
    ..\uCOS-III\Source\os_task.c             0x00000000   Number         0  os_task.o ABSOLUTE
    ..\uCOS-III\Source\os_tick.c             0x00000000   Number         0  os_tick.o ABSOLUTE
    ..\uCOS-III\Source\os_time.c             0x00000000   Number         0  os_time.o ABSOLUTE
    ..\uCOS-III\Source\os_tmr.c              0x00000000   Number         0  os_tmr.o ABSOLUTE
    ..\uCOS-III\Source\os_var.c              0x00000000   Number         0  os_var.o ABSOLUTE
    dc.s                                     0x00000000   Number         0  dc.o ABSOLUTE
    RESET                                    0x08000000   Section      388  cstartup.o(RESET)
    !!!main                                  0x08000184   Section        8  __main.o(!!!main)
    !!!scatter                               0x0800018c   Section       52  __scatter.o(!!!scatter)
    !!handler_copy                           0x080001c0   Section       26  __scatter_copy.o(!!handler_copy)
    !!handler_zi                             0x080001dc   Section       28  __scatter_zi.o(!!handler_zi)
    .ARM.Collect$$_printf_percent$$00000000  0x080001f8   Section        0  _printf_percent.o(.ARM.Collect$$_printf_percent$$00000000)
    .ARM.Collect$$_printf_percent$$00000001  0x080001f8   Section        6  _printf_n.o(.ARM.Collect$$_printf_percent$$00000001)
    .ARM.Collect$$_printf_percent$$00000002  0x080001fe   Section        6  _printf_p.o(.ARM.Collect$$_printf_percent$$00000002)
    .ARM.Collect$$_printf_percent$$00000003  0x08000204   Section        6  _printf_f.o(.ARM.Collect$$_printf_percent$$00000003)
    .ARM.Collect$$_printf_percent$$00000004  0x0800020a   Section        6  _printf_e.o(.ARM.Collect$$_printf_percent$$00000004)
    .ARM.Collect$$_printf_percent$$00000005  0x08000210   Section        6  _printf_g.o(.ARM.Collect$$_printf_percent$$00000005)
    .ARM.Collect$$_printf_percent$$00000006  0x08000216   Section        6  _printf_a.o(.ARM.Collect$$_printf_percent$$00000006)
    .ARM.Collect$$_printf_percent$$00000007  0x0800021c   Section       10  _printf_ll.o(.ARM.Collect$$_printf_percent$$00000007)
    .ARM.Collect$$_printf_percent$$00000008  0x08000226   Section        6  _printf_i.o(.ARM.Collect$$_printf_percent$$00000008)
    .ARM.Collect$$_printf_percent$$00000009  0x0800022c   Section        6  _printf_d.o(.ARM.Collect$$_printf_percent$$00000009)
    .ARM.Collect$$_printf_percent$$0000000A  0x08000232   Section        6  _printf_u.o(.ARM.Collect$$_printf_percent$$0000000A)
    .ARM.Collect$$_printf_percent$$0000000B  0x08000238   Section        6  _printf_o.o(.ARM.Collect$$_printf_percent$$0000000B)
    .ARM.Collect$$_printf_percent$$0000000C  0x0800023e   Section        6  _printf_x.o(.ARM.Collect$$_printf_percent$$0000000C)
    .ARM.Collect$$_printf_percent$$0000000D  0x08000244   Section        6  _printf_lli.o(.ARM.Collect$$_printf_percent$$0000000D)
    .ARM.Collect$$_printf_percent$$0000000E  0x0800024a   Section        6  _printf_lld.o(.ARM.Collect$$_printf_percent$$0000000E)
    .ARM.Collect$$_printf_percent$$0000000F  0x08000250   Section        6  _printf_llu.o(.ARM.Collect$$_printf_percent$$0000000F)
    .ARM.Collect$$_printf_percent$$00000010  0x08000256   Section        6  _printf_llo.o(.ARM.Collect$$_printf_percent$$00000010)
    .ARM.Collect$$_printf_percent$$00000011  0x0800025c   Section        6  _printf_llx.o(.ARM.Collect$$_printf_percent$$00000011)
    .ARM.Collect$$_printf_percent$$00000012  0x08000262   Section       10  _printf_l.o(.ARM.Collect$$_printf_percent$$00000012)
    .ARM.Collect$$_printf_percent$$00000013  0x0800026c   Section        6  _printf_c.o(.ARM.Collect$$_printf_percent$$00000013)
    .ARM.Collect$$_printf_percent$$00000014  0x08000272   Section        6  _printf_s.o(.ARM.Collect$$_printf_percent$$00000014)
    .ARM.Collect$$_printf_percent$$00000015  0x08000278   Section        6  _printf_lc.o(.ARM.Collect$$_printf_percent$$00000015)
    .ARM.Collect$$_printf_percent$$00000016  0x0800027e   Section        6  _printf_ls.o(.ARM.Collect$$_printf_percent$$00000016)
    .ARM.Collect$$_printf_percent$$00000017  0x08000284   Section        4  _printf_percent_end.o(.ARM.Collect$$_printf_percent$$00000017)
    .ARM.Collect$$libinit$$00000000          0x08000288   Section        2  libinit.o(.ARM.Collect$$libinit$$00000000)
    .ARM.Collect$$libinit$$00000002          0x0800028a   Section        0  libinit2.o(.ARM.Collect$$libinit$$00000002)
    .ARM.Collect$$libinit$$00000004          0x0800028a   Section        0  libinit2.o(.ARM.Collect$$libinit$$00000004)
    .ARM.Collect$$libinit$$0000000A          0x0800028a   Section        0  libinit2.o(.ARM.Collect$$libinit$$0000000A)
    .ARM.Collect$$libinit$$0000000C          0x0800028a   Section        0  libinit2.o(.ARM.Collect$$libinit$$0000000C)
    .ARM.Collect$$libinit$$0000000E          0x0800028a   Section        0  libinit2.o(.ARM.Collect$$libinit$$0000000E)
    .ARM.Collect$$libinit$$0000000F          0x0800028a   Section        6  libinit2.o(.ARM.Collect$$libinit$$0000000F)
    .ARM.Collect$$libinit$$00000011          0x08000290   Section        0  libinit2.o(.ARM.Collect$$libinit$$00000011)
    .ARM.Collect$$libinit$$00000012          0x08000290   Section       12  libinit2.o(.ARM.Collect$$libinit$$00000012)
    .ARM.Collect$$libinit$$00000013          0x0800029c   Section        0  libinit2.o(.ARM.Collect$$libinit$$00000013)
    .ARM.Collect$$libinit$$00000015          0x0800029c   Section        0  libinit2.o(.ARM.Collect$$libinit$$00000015)
    .ARM.Collect$$libinit$$00000016          0x0800029c   Section       10  libinit2.o(.ARM.Collect$$libinit$$00000016)
    .ARM.Collect$$libinit$$00000017          0x080002a6   Section        0  libinit2.o(.ARM.Collect$$libinit$$00000017)
    .ARM.Collect$$libinit$$00000019          0x080002a6   Section        0  libinit2.o(.ARM.Collect$$libinit$$00000019)
    .ARM.Collect$$libinit$$0000001B          0x080002a6   Section        0  libinit2.o(.ARM.Collect$$libinit$$0000001B)
    .ARM.Collect$$libinit$$0000001D          0x080002a6   Section        0  libinit2.o(.ARM.Collect$$libinit$$0000001D)
    .ARM.Collect$$libinit$$0000001F          0x080002a6   Section        0  libinit2.o(.ARM.Collect$$libinit$$0000001F)
    .ARM.Collect$$libinit$$00000021          0x080002a6   Section        0  libinit2.o(.ARM.Collect$$libinit$$00000021)
    .ARM.Collect$$libinit$$00000023          0x080002a6   Section        0  libinit2.o(.ARM.Collect$$libinit$$00000023)
    .ARM.Collect$$libinit$$00000025          0x080002a6   Section        0  libinit2.o(.ARM.Collect$$libinit$$00000025)
    .ARM.Collect$$libinit$$0000002C          0x080002a6   Section        0  libinit2.o(.ARM.Collect$$libinit$$0000002C)
    .ARM.Collect$$libinit$$0000002E          0x080002a6   Section        0  libinit2.o(.ARM.Collect$$libinit$$0000002E)
    .ARM.Collect$$libinit$$00000030          0x080002a6   Section        0  libinit2.o(.ARM.Collect$$libinit$$00000030)
    .ARM.Collect$$libinit$$00000032          0x080002a6   Section        0  libinit2.o(.ARM.Collect$$libinit$$00000032)
    .ARM.Collect$$libinit$$00000033          0x080002a6   Section        2  libinit2.o(.ARM.Collect$$libinit$$00000033)
    .ARM.Collect$$libshutdown$$00000000      0x080002a8   Section        2  libshutdown.o(.ARM.Collect$$libshutdown$$00000000)
    .ARM.Collect$$libshutdown$$00000003      0x080002aa   Section        0  libshutdown2.o(.ARM.Collect$$libshutdown$$00000003)
    .ARM.Collect$$libshutdown$$00000006      0x080002aa   Section        0  libshutdown2.o(.ARM.Collect$$libshutdown$$00000006)
    .ARM.Collect$$libshutdown$$00000009      0x080002aa   Section        0  libshutdown2.o(.ARM.Collect$$libshutdown$$00000009)
    .ARM.Collect$$libshutdown$$0000000B      0x080002aa   Section        0  libshutdown2.o(.ARM.Collect$$libshutdown$$0000000B)
    .ARM.Collect$$libshutdown$$0000000E      0x080002aa   Section        0  libshutdown2.o(.ARM.Collect$$libshutdown$$0000000E)
    .ARM.Collect$$libshutdown$$0000000F      0x080002aa   Section        2  libshutdown2.o(.ARM.Collect$$libshutdown$$0000000F)
    .ARM.Collect$$rtentry$$00000000          0x080002ac   Section        0  __rtentry.o(.ARM.Collect$$rtentry$$00000000)
    .ARM.Collect$$rtentry$$00000002          0x080002ac   Section        0  __rtentry2.o(.ARM.Collect$$rtentry$$00000002)
    .ARM.Collect$$rtentry$$00000004          0x080002ac   Section        6  __rtentry4.o(.ARM.Collect$$rtentry$$00000004)
    .ARM.Collect$$rtentry$$00000009          0x080002b2   Section        0  __rtentry2.o(.ARM.Collect$$rtentry$$00000009)
    .ARM.Collect$$rtentry$$0000000A          0x080002b2   Section        4  __rtentry2.o(.ARM.Collect$$rtentry$$0000000A)
    .ARM.Collect$$rtentry$$0000000C          0x080002b6   Section        0  __rtentry2.o(.ARM.Collect$$rtentry$$0000000C)
    .ARM.Collect$$rtentry$$0000000D          0x080002b6   Section        8  __rtentry2.o(.ARM.Collect$$rtentry$$0000000D)
    .ARM.Collect$$rtexit$$00000000           0x080002be   Section        2  rtexit.o(.ARM.Collect$$rtexit$$00000000)
    .ARM.Collect$$rtexit$$00000002           0x080002c0   Section        0  rtexit2.o(.ARM.Collect$$rtexit$$00000002)
    .ARM.Collect$$rtexit$$00000003           0x080002c0   Section        4  rtexit2.o(.ARM.Collect$$rtexit$$00000003)
    .ARM.Collect$$rtexit$$00000004           0x080002c4   Section        6  rtexit2.o(.ARM.Collect$$rtexit$$00000004)
    .text                                    0x080002cc   Section        0  app.o(.text)
    AppTaskCreate                            0x08000359   Thumb Code    56  app.o(.text)
    AppObjCreate                             0x08000391   Thumb Code     2  app.o(.text)
    AppTaskStart                             0x08000393   Thumb Code    74  app.o(.text)
    .text                                    0x080004ac   Section        0  mp3_player.o(.text)
    delay_ms                                 0x080004c1   Thumb Code    42  mp3_player.o(.text)
    .text                                    0x0800070c   Section        0  bsp.o(.text)
    BSP_LED_Init                             0x0800070d   Thumb Code    50  bsp.o(.text)
    .text                                    0x0800084c   Section        0  bsp_int.o(.text)
    BSP_IntHandlerDummy                      0x080008e5   Thumb Code     2  bsp_int.o(.text)
    BSP_IntHandler                           0x080008fd   Thumb Code    58  bsp_int.o(.text)
    .text                                    0x08000c68   Section        0  bsp_ser.o(.text)
    BSP_Ser_ISR_Handler                      0x08000c69   Thumb Code    80  bsp_ser.o(.text)
    BSP_Ser_WrByteUnlocked                   0x08000d95   Thumb Code    46  bsp_ser.o(.text)
    BSP_Ser_RdByteUnlocked                   0x08000e2d   Thumb Code    42  bsp_ser.o(.text)
    .text                                    0x08000f60   Section        0  bsp_os.o(.text)
    .text                                    0x08001018   Section        0  bsp_sdio.o(.text)
    .text                                    0x08001848   Section       60  cstartup.o(.text)
    .text                                    0x08001884   Section        0  timer.o(.text)
    .text                                    0x08001a8c   Section        0  util.o(.text)
    .text                                    0x08001afc   Section        0  bsp_dac.o(.text)
    dac_io_init                              0x08001afd   Thumb Code    36  bsp_dac.o(.text)
    .text                                    0x08001b6c   Section        0  bsp_dma.o(.text)
    .text                                    0x08001bc8   Section        0  misc.o(.text)
    .text                                    0x08001ca8   Section        0  stm32f2xx_dac.o(.text)
    .text                                    0x08001eb8   Section        0  stm32f2xx_dma.o(.text)
    .text                                    0x08002260   Section        0  stm32f2xx_gpio.o(.text)
    .text                                    0x080024bc   Section        0  stm32f2xx_rcc.o(.text)
    .text                                    0x08002a44   Section        0  stm32f2xx_sdio.o(.text)
    .text                                    0x08002c34   Section        0  stm32f2xx_tim.o(.text)
    TI4_Config                               0x080033d3   Thumb Code    80  stm32f2xx_tim.o(.text)
    TI3_Config                               0x08003435   Thumb Code    72  stm32f2xx_tim.o(.text)
    TI2_Config                               0x08003497   Thumb Code    90  stm32f2xx_tim.o(.text)
    TI1_Config                               0x08003503   Thumb Code    58  stm32f2xx_tim.o(.text)
    .text                                    0x080038d8   Section        0  stm32f2xx_usart.o(.text)
    .text                                    0x08003cf2   Section        0  lib_ascii.o(.text)
    .text                                    0x08003f48   Section        0  lib_mem.o(.text)
    Mem_SegAlloc                             0x0800417f   Thumb Code    80  lib_mem.o(.text)
    Mem_SegCalcTotSize                       0x080041cf   Thumb Code   164  lib_mem.o(.text)
    Mem_PoolBlkIsValidAddr                   0x08004b15   Thumb Code   102  lib_mem.o(.text)
    .text                                    0x08004e0c   Section        0  lib_str.o(.text)
    Str_FmtNbr_Int32                         0x080052c5   Thumb Code   474  lib_str.o(.text)
    Str_ParseNbr_Int32                       0x0800550b   Thumb Code   446  lib_str.o(.text)
    .text                                    0x08005734   Section      544  lib_mem_a.o(.text)
    .text                                    0x08005954   Section        0  cpu_core.o(.text)
    CPU_NameInit                             0x0800597f   Thumb Code     8  cpu_core.o(.text)
    CPU_TS_Init                              0x08005987   Thumb Code    14  cpu_core.o(.text)
    .text                                    0x08005bfc   Section       52  cpu_a.o(.text)
    .text                                    0x08005c30   Section        0  cpu_c.o(.text)
    .text                                    0x080063ac   Section        0  os_cpu_c.o(.text)
    .text                                    0x08006618   Section        0  os_cfg_app.o(.text)
    .text                                    0x0800661c   Section        0  os_core.o(.text)
    .text                                    0x080073b8   Section        0  os_dbg.o(.text)
    .text                                    0x08007564   Section        0  os_flag.o(.text)
    .text                                    0x08007c9c   Section        0  os_mem.o(.text)
    .text                                    0x08007e98   Section        0  os_msg.o(.text)
    .text                                    0x080080c0   Section        0  os_mutex.o(.text)
    .text                                    0x08008598   Section        0  os_prio.o(.text)
    .text                                    0x08008614   Section        0  os_q.o(.text)
    .text                                    0x08008b48   Section        0  os_sem.o(.text)
    .text                                    0x080090fc   Section        0  os_stat.o(.text)
    .text                                    0x080096a4   Section        0  os_task.o(.text)
    .text                                    0x0800a82c   Section        0  os_tick.o(.text)
    .text                                    0x0800acb0   Section        0  os_time.o(.text)
    .text                                    0x0800afbc   Section        0  os_tmr.o(.text)
    .text                                    0x0800b6fc   Section        0  diskio.o(.text)
    .text                                    0x0800b7d8   Section        0  ff.o(.text)
    mem_cpy                                  0x0800b7d9   Thumb Code    26  ff.o(.text)
    mem_set                                  0x0800b7f3   Thumb Code    20  ff.o(.text)
    mem_cmp                                  0x0800b807   Thumb Code    38  ff.o(.text)
    chk_chr                                  0x0800b82d   Thumb Code    20  ff.o(.text)
    move_window                              0x0800b841   Thumb Code   114  ff.o(.text)
    sync                                     0x0800b8b3   Thumb Code   202  ff.o(.text)
    remove_chain                             0x0800bbb1   Thumb Code   104  ff.o(.text)
    create_chain                             0x0800bc19   Thumb Code   202  ff.o(.text)
    dir_sdi                                  0x0800bce3   Thumb Code   156  ff.o(.text)
    dir_next                                 0x0800bd7f   Thumb Code   280  ff.o(.text)
    cmp_lfn                                  0x0800be97   Thumb Code   138  ff.o(.text)
    pick_lfn                                 0x0800bf21   Thumb Code   112  ff.o(.text)
    fit_lfn                                  0x0800bf91   Thumb Code   122  ff.o(.text)
    sum_sfn                                  0x0800c0b3   Thumb Code    32  ff.o(.text)
    dir_find                                 0x0800c0d3   Thumb Code   222  ff.o(.text)
    dir_read                                 0x0800c1b1   Thumb Code   190  ff.o(.text)
    dir_register                             0x0800c26f   Thumb Code   400  ff.o(.text)
    dir_remove                               0x0800c3ff   Thumb Code    96  ff.o(.text)
    create_name                              0x0800c45f   Thumb Code   534  ff.o(.text)
    get_fileinfo                             0x0800c675   Thumb Code   296  ff.o(.text)
    follow_path                              0x0800c79d   Thumb Code   158  ff.o(.text)
    check_fs                                 0x0800c83b   Thumb Code   166  ff.o(.text)
    chk_mounted                              0x0800c8e1   Thumb Code   898  ff.o(.text)
    validate                                 0x0800cc63   Thumb Code    42  ff.o(.text)
    .text                                    0x0800db5c   Section        0  ccsbcs.o(.text)
    .text                                    0x0800dbdc   Section        0  system_stm32f2xx.o(.text)
    SetSysClock                              0x0800dbdd   Thumb Code   192  system_stm32f2xx.o(.text)
    .text                                    0x0800ddbc   Section        0  mp3dec.o(.text)
    MP3FindFreeSync                          0x0800de09   Thumb Code   100  mp3dec.o(.text)
    MP3ClearBadFrame                         0x0800df07   Thumb Code    42  mp3dec.o(.text)
    .text                                    0x0800e258   Section        0  bitstream.o(.text)
    RefillBitstreamCache                     0x0800e265   Thumb Code   136  bitstream.o(.text)
    .text                                    0x0800e788   Section        0  buffers.o(.text)
    .text                                    0x0800e834   Section        0  dct32.o(.text)
    .text                                    0x0800f560   Section        0  dequant.o(.text)
    CLZ                                      0x0800f561   Thumb Code    28  dequant.o(.text)
    .text                                    0x0800f800   Section        0  dqchan.o(.text)
    CLZ                                      0x0800f801   Thumb Code    28  dqchan.o(.text)
    DequantBlock                             0x0800f81d   Thumb Code   404  dqchan.o(.text)
    .text                                    0x0800fc50   Section        0  huffman.o(.text)
    DecodeHuffmanPairs                       0x0800fc51   Thumb Code   896  huffman.o(.text)
    DecodeHuffmanQuads                       0x0800ffd1   Thumb Code   366  huffman.o(.text)
    .text                                    0x0801037c   Section        0  imdct.o(.text)
    AntiAlias                                0x0801037d   Thumb Code   592  imdct.o(.text)
    WinPrevious                              0x080105cd   Thumb Code   336  imdct.o(.text)
    FreqInvertRescale                        0x0801071d   Thumb Code   528  imdct.o(.text)
    idct9                                    0x0801092d   Thumb Code   454  imdct.o(.text)
    IMDCT36                                  0x08010af3   Thumb Code   572  imdct.o(.text)
    imdct12                                  0x08010d2f   Thumb Code   270  imdct.o(.text)
    IMDCT12x3                                0x08010e3d   Thumb Code   486  imdct.o(.text)
    HybridTransform                          0x08011023   Thumb Code   380  imdct.o(.text)
    .text                                    0x080113a8   Section        0  scalfact.o(.text)
    UnpackSFMPEG1                            0x080113a9   Thumb Code   444  scalfact.o(.text)
    UnpackSFMPEG2                            0x08011565   Thumb Code   720  scalfact.o(.text)
    .text                                    0x0801195c   Section        0  stproc.o(.text)
    .text                                    0x08011f80   Section        0  subband.o(.text)
    .text                                    0x08012098   Section       22  asmmisc.o(.text)
    .text                                    0x080120b0   Section     2062  asmpoly_thumb2.o(.text)
    .text                                    0x080128c0   Section        0  c89vsnprintf.o(.text)
    .text                                    0x080128f4   Section        0  _printf_dec.o(.text)
    .text                                    0x0801296c   Section        0  __printf_flags_ss_wp.o(.text)
    .text                                    0x08012af4   Section        0  strcpy.o(.text)
    .text                                    0x08012b3c   Section        0  strcat.o(.text)
    .text                                    0x08012b54   Section      138  rt_memcpy_v6.o(.text)
    .text                                    0x08012bde   Section      132  rt_memmove_v6.o(.text)
    .text                                    0x08012c62   Section        0  heapauxi.o(.text)
    .text                                    0x08012c68   Section        0  _printf_pad.o(.text)
    .text                                    0x08012cb6   Section        0  _printf_truncate.o(.text)
    .text                                    0x08012cda   Section        0  _printf_str.o(.text)
    .text                                    0x08012d2c   Section        0  _printf_intcommon.o(.text)
    .text                                    0x08012dde   Section        0  _printf_charcount.o(.text)
    .text                                    0x08012e08   Section        0  _printf_char_common.o(.text)
    _printf_input_char                       0x08012e09   Thumb Code    10  _printf_char_common.o(.text)
    .text                                    0x08012e38   Section        0  _sputc.o(.text)
    .text                                    0x08012e42   Section        0  _snputc.o(.text)
    .text                                    0x08012e54   Section        0  _printf_wctomb.o(.text)
    .text                                    0x08012f10   Section        0  _printf_longlong_dec.o(.text)
    .text                                    0x08012f8c   Section        0  _printf_oct_int_ll.o(.text)
    _printf_longlong_oct_internal            0x08012f8d   Thumb Code     0  _printf_oct_int_ll.o(.text)
    .text                                    0x08012ffc   Section        0  _printf_hex_int_ll_ptr.o(.text)
    _printf_hex_common                       0x08012ffd   Thumb Code     0  _printf_hex_int_ll_ptr.o(.text)
    .text                                    0x08013090   Section      100  rt_memcpy_w.o(.text)
    .text                                    0x080130f4   Section      122  rt_memmove_w.o(.text)
    .text                                    0x0801316e   Section      138  lludiv10.o(.text)
    .text                                    0x080131f8   Section        0  _printf_fp_dec.o(.text)
    _fp_digits                               0x080131fb   Thumb Code   428  _printf_fp_dec.o(.text)
    .text                                    0x08013612   Section        0  _printf_char.o(.text)
    .text                                    0x0801363e   Section        0  _printf_wchar.o(.text)
    .text                                    0x0801366a   Section        0  _wcrtomb.o(.text)
    .text                                    0x080136aa   Section       74  sys_stackheap_outer.o(.text)
    .text                                    0x080136f4   Section       16  rt_ctype_table.o(.text)
    .text                                    0x08013704   Section        8  rt_locale_intlibspace.o(.text)
    .text                                    0x0801370c   Section        0  _printf_fp_infnan.o(.text)
    .text                                    0x0801378c   Section        0  bigflt0.o(.text)
    .text                                    0x08013868   Section        0  exit.o(.text)
    .text                                    0x08013874   Section        8  libspace.o(.text)
    .text                                    0x0801387c   Section        2  use_no_semi.o(.text)
    .text                                    0x0801387e   Section        0  indicate_semi.o(.text)
    .text                                    0x08013880   Section      128  strcmpv7m.o(.text)
    .text                                    0x08013900   Section        0  sys_exit.o(.text)
    CL$$btod_d2e                             0x0801390c   Section       62  btod.o(CL$$btod_d2e)
    CL$$btod_d2e_denorm_low                  0x0801394a   Section       70  btod.o(CL$$btod_d2e_denorm_low)
    CL$$btod_d2e_norm_op1                    0x08013990   Section       96  btod.o(CL$$btod_d2e_norm_op1)
    CL$$btod_div_common                      0x080139f0   Section      824  btod.o(CL$$btod_div_common)
    CL$$btod_e2e                             0x08013d28   Section      198  btod.o(CL$$btod_e2e)
    CL$$btod_ediv                            0x08013dee   Section       40  btod.o(CL$$btod_ediv)
    CL$$btod_emul                            0x08013e16   Section       40  btod.o(CL$$btod_emul)
    CL$$btod_mult_common                     0x08013e3e   Section      580  btod.o(CL$$btod_mult_common)
    CODE                                     0x08014084   Section      132  os_cpu_a.o(CODE)
    i.__ARM_fpclassify                       0x08014108   Section        0  fpclassify.o(i.__ARM_fpclassify)
    i._is_digit                              0x08014130   Section        0  __printf_wp.o(i._is_digit)
    locale$$code                             0x08014140   Section       44  lc_numeric_c.o(locale$$code)
    locale$$code                             0x0801416c   Section       44  lc_ctype_c.o(locale$$code)
    x$fpl$printf1                            0x08014198   Section        4  printf1.o(x$fpl$printf1)
    .constdata                               0x0801419c   Section      148  lib_str.o(.constdata)
    x$fpl$usenofp                            0x0801419c   Section        0  usenofp.o(x$fpl$usenofp)
    Str_MultOvfThTbl_Int32U                  0x0801419c   Data         148  lib_str.o(.constdata)
    .constdata                               0x08014230   Section      256  cpu_core.o(.constdata)
    CPU_CntLeadZerosTbl                      0x08014230   Data         256  cpu_core.o(.constdata)
    .constdata                               0x08014330   Section      164  os_cfg_app.o(.constdata)
    .constdata                               0x080143d4   Section      364  os_dbg.o(.constdata)
    .constdata                               0x08014540   Section      141  ff.o(.constdata)
    LfnOfs                                   0x08014540   Data          13  ff.o(.constdata)
    excvt                                    0x0801454d   Data         128  ff.o(.constdata)
    .constdata                               0x080145ce   Section     1216  ccsbcs.o(.constdata)
    Tbl                                      0x080145ce   Data         256  ccsbcs.o(.constdata)
    tbl_lower                                0x080146ce   Data         480  ccsbcs.o(.constdata)
    tbl_upper                                0x080148ae   Data         480  ccsbcs.o(.constdata)
    .constdata                               0x08014a90   Section     1278  mp3tabs.o(.constdata)
    .constdata                               0x08014f90   Section      192  dct32.o(.constdata)
    dcttab                                   0x08014f90   Data         192  dct32.o(.constdata)
    .constdata                               0x08015050   Section      592  dqchan.o(.constdata)
    preTab                                   0x08015050   Data          22  dqchan.o(.constdata)
    pow14                                    0x08015068   Data          16  dqchan.o(.constdata)
    pow43_14                                 0x08015078   Data         256  dqchan.o(.constdata)
    pow43                                    0x08015178   Data         192  dqchan.o(.constdata)
    poly43lo                                 0x08015238   Data          20  dqchan.o(.constdata)
    poly43hi                                 0x0801524c   Data          20  dqchan.o(.constdata)
    pow2exp                                  0x08015260   Data          32  dqchan.o(.constdata)
    pow2frac                                 0x08015280   Data          32  dqchan.o(.constdata)
    .constdata                               0x080152a0   Section     8964  hufftabs.o(.constdata)
    .constdata                               0x080175a4   Section      120  imdct.o(.constdata)
    c18                                      0x080175a4   Data          36  imdct.o(.constdata)
    fastWin36                                0x080175c8   Data          72  imdct.o(.constdata)
    c6                                       0x08017610   Data          12  imdct.o(.constdata)
    .constdata                               0x0801761c   Section      104  scalfact.o(.constdata)
    SFLenTab                                 0x0801761c   Data          32  scalfact.o(.constdata)
    NRTab                                    0x0801763c   Data          72  scalfact.o(.constdata)
    .constdata                               0x08017684   Section     2156  trigtabs.o(.constdata)
    .constdata                               0x08017ef0   Section       17  __printf_flags_ss_wp.o(.constdata)
    maptable                                 0x08017ef0   Data          17  __printf_flags_ss_wp.o(.constdata)
    .constdata                               0x08017f04   Section        8  _printf_wctomb.o(.constdata)
    initial_mbstate                          0x08017f04   Data           8  _printf_wctomb.o(.constdata)
    .constdata                               0x08017f0c   Section       40  _printf_hex_int_ll_ptr.o(.constdata)
    uc_hextab                                0x08017f0c   Data          20  _printf_hex_int_ll_ptr.o(.constdata)
    lc_hextab                                0x08017f20   Data          20  _printf_hex_int_ll_ptr.o(.constdata)
    .constdata                               0x08017f34   Section      148  bigflt0.o(.constdata)
    tenpwrs_x                                0x08017f34   Data          60  bigflt0.o(.constdata)
    tenpwrs_i                                0x08017f70   Data          64  bigflt0.o(.constdata)
    locale$$data                             0x08017fe8   Section       28  lc_numeric_c.o(locale$$data)
    __lcnum_c_name                           0x08017fec   Data           2  lc_numeric_c.o(locale$$data)
    __lcnum_c_start                          0x08017ff4   Data           0  lc_numeric_c.o(locale$$data)
    __lcnum_c_point                          0x08018000   Data           0  lc_numeric_c.o(locale$$data)
    __lcnum_c_thousands                      0x08018002   Data           0  lc_numeric_c.o(locale$$data)
    __lcnum_c_grouping                       0x08018003   Data           0  lc_numeric_c.o(locale$$data)
    locale$$data                             0x08018004   Section      272  lc_ctype_c.o(locale$$data)
    __lcnum_c_end                            0x08018004   Data           0  lc_numeric_c.o(locale$$data)
    __lcctype_c_name                         0x08018008   Data           2  lc_ctype_c.o(locale$$data)
    __lcctype_c_start                        0x08018010   Data           0  lc_ctype_c.o(locale$$data)
    __lcctype_c_end                          0x08018114   Data           0  lc_ctype_c.o(locale$$data)
    .data                                    0x20000000   Section        1  bsp_ser.o(.data)
    BSP_SerRxData                            0x20000000   Data           1  bsp_ser.o(.data)
    .data                                    0x20000004   Section        8  bsp_sdio.o(.data)
    .data                                    0x2000000c   Section       12  timer.o(.data)
    .data                                    0x20000018   Section       16  stm32f2xx_rcc.o(.data)
    APBAHBPrescTable                         0x20000018   Data          16  stm32f2xx_rcc.o(.data)
    .data                                    0x20000028   Section        4  lib_mem.o(.data)
    .data                                    0x2000002c   Section        4  cpu_core.o(.data)
    .data                                    0x20000030   Section        4  os_cpu_c.o(.data)
    .data                                    0x20000034   Section        4  os_prio.o(.data)
    .data                                    0x20000038   Section      180  os_var.o(.data)
    .data                                    0x200000ec   Section        1  diskio.o(.data)
    Stat                                     0x200000ec   Data           1  diskio.o(.data)
    .data                                    0x200000f0   Section        6  ff.o(.data)
    FatFs                                    0x200000f0   Data           4  ff.o(.data)
    Fsid                                     0x200000f4   Data           2  ff.o(.data)
    .data                                    0x200000f8   Section       20  system_stm32f2xx.o(.data)
    .bss                                     0x2000010c   Section     1304  app.o(.bss)
    AppTaskStartTCB                          0x2000010c   Data         196  app.o(.bss)
    AppTaskStartStk                          0x200001d0   Data         512  app.o(.bss)
    AppSystemTCB                             0x200003d0   Data         196  app.o(.bss)
    AppSystemStk                             0x20000494   Data         400  app.o(.bss)
    .bss                                     0x20000624   Section    11648  mp3_player.o(.bss)
    .bss                                     0x200033a4   Section      324  bsp_int.o(.bss)
    BSP_IntVectTbl                           0x200033a4   Data         324  bsp_int.o(.bss)
    .bss                                     0x200034e8   Section      120  bsp_ser.o(.bss)
    BSP_SerTxWait                            0x200034e8   Data          40  bsp_ser.o(.bss)
    BSP_SerRxWait                            0x20003510   Data          40  bsp_ser.o(.bss)
    BSP_SerLock                              0x20003538   Data          40  bsp_ser.o(.bss)
    .bss                                     0x20003560   Section      124  bsp_sdio.o(.bss)
    BSP_SD_Lock                              0x20003574   Data          40  bsp_sdio.o(.bss)
    .bss                                     0x200035dc   Section     9288  lib_mem.o(.bss)
    .bss                                     0x20005a24   Section       16  cpu_core.o(.bss)
    .bss                                     0x20005a34   Section     4128  os_cfg_app.o(.bss)
    .bss                                     0x20006a54   Section      940  os_var.o(.bss)
    .bss                                     0x20006e00   Section    23816  buffers.o(.bss)
    .bss                                     0x2000cb08   Section       96  libspace.o(.bss)
    HEAP                                     0x2000cb68   Section      512  cstartup.o(HEAP)
    Heap_Mem                                 0x2000cb68   Data         512  cstartup.o(HEAP)
    STACK                                    0x2000cd68   Section     4096  cstartup.o(STACK)
    Stack_Mem                                0x2000cd68   Data        4096  cstartup.o(STACK)
    __initial_sp                             0x2000dd68   Data           0  cstartup.o(STACK)

    Global Symbols

    Symbol Name                              Value     Ov Type        Size  Object(Section)

    BuildAttributes$$THM_ISAv4$P$D$K$B$S$PE$A:L22UL41UL21$X:L11$S22US41US21$IEEE1$IW$USESV6$~STKCKD$USESV7$~SHL$OTIME$ROPI$IEEEJ$EBA8$UX$STANDARDLIB$REQ8$PRES8$EABIv2 0x00000000   Number         0  anon$$obj.o ABSOLUTE
    __ARM_use_no_argv                        0x00000000   Number         0  app.o ABSOLUTE
    _printf_flags                            0x00000000   Number         0  printf_stubs.o ABSOLUTE
    _printf_return_value                     0x00000000   Number         0  printf_stubs.o ABSOLUTE
    _printf_sizespec                         0x00000000   Number         0  printf_stubs.o ABSOLUTE
    _printf_widthprec                        0x00000000   Number         0  printf_stubs.o ABSOLUTE
    __ARM_exceptions_init                     - Undefined Weak Reference
    __alloca_initialize                       - Undefined Weak Reference
    __arm_preinit_                            - Undefined Weak Reference
    __cpp_initialize__aeabi_                  - Undefined Weak Reference
    __cxa_finalize                            - Undefined Weak Reference
    __sigvec_lookup                           - Undefined Weak Reference
    __user_heap_extent                        - Undefined Weak Reference
    _atexit_init                              - Undefined Weak Reference
    _call_atexit_fns                          - Undefined Weak Reference
    _clock_init                               - Undefined Weak Reference
    _fp_trap_init                             - Undefined Weak Reference
    _fp_trap_shutdown                         - Undefined Weak Reference
    _get_lc_collate                           - Undefined Weak Reference
    _get_lc_monetary                          - Undefined Weak Reference
    _get_lc_time                              - Undefined Weak Reference
    _getenv_init                              - Undefined Weak Reference
    _handle_redirection                       - Undefined Weak Reference
    _mutex_acquire                            - Undefined Weak Reference
    _mutex_free                               - Undefined Weak Reference
    _mutex_release                            - Undefined Weak Reference
    _printf_fp_hex                            - Undefined Weak Reference
    _printf_mbtowc                            - Undefined Weak Reference
    _printf_wc                                - Undefined Weak Reference
    _rand_init                                - Undefined Weak Reference
    _signal_finish                            - Undefined Weak Reference
    _signal_init                              - Undefined Weak Reference
    __Vectors_Size                           0x00000184   Number         0  cstartup.o ABSOLUTE
    __Vectors                                0x08000000   Data           4  cstartup.o(RESET)
    __Vectors_End                            0x08000184   Data           0  cstartup.o(RESET)
    __main                                   0x08000185   Thumb Code     8  __main.o(!!!main)
    __scatterload                            0x0800018d   Thumb Code     0  __scatter.o(!!!scatter)
    __scatterload_rt2                        0x0800018d   Thumb Code    44  __scatter.o(!!!scatter)
    __scatterload_rt2_thumb_only             0x0800018d   Thumb Code     0  __scatter.o(!!!scatter)
    __scatterload_null                       0x0800019b   Thumb Code     0  __scatter.o(!!!scatter)
    __scatterload_copy                       0x080001c1   Thumb Code    26  __scatter_copy.o(!!handler_copy)
    __scatterload_zeroinit                   0x080001dd   Thumb Code    28  __scatter_zi.o(!!handler_zi)
    _printf_n                                0x080001f9   Thumb Code     0  _printf_n.o(.ARM.Collect$$_printf_percent$$00000001)
    _printf_percent                          0x080001f9   Thumb Code     0  _printf_percent.o(.ARM.Collect$$_printf_percent$$00000000)
    _printf_p                                0x080001ff   Thumb Code     0  _printf_p.o(.ARM.Collect$$_printf_percent$$00000002)
    _printf_f                                0x08000205   Thumb Code     0  _printf_f.o(.ARM.Collect$$_printf_percent$$00000003)
    _printf_e                                0x0800020b   Thumb Code     0  _printf_e.o(.ARM.Collect$$_printf_percent$$00000004)
    _printf_g                                0x08000211   Thumb Code     0  _printf_g.o(.ARM.Collect$$_printf_percent$$00000005)
    _printf_a                                0x08000217   Thumb Code     0  _printf_a.o(.ARM.Collect$$_printf_percent$$00000006)
    _printf_ll                               0x0800021d   Thumb Code     0  _printf_ll.o(.ARM.Collect$$_printf_percent$$00000007)
    _printf_i                                0x08000227   Thumb Code     0  _printf_i.o(.ARM.Collect$$_printf_percent$$00000008)
    _printf_d                                0x0800022d   Thumb Code     0  _printf_d.o(.ARM.Collect$$_printf_percent$$00000009)
    _printf_u                                0x08000233   Thumb Code     0  _printf_u.o(.ARM.Collect$$_printf_percent$$0000000A)
    _printf_o                                0x08000239   Thumb Code     0  _printf_o.o(.ARM.Collect$$_printf_percent$$0000000B)
    _printf_x                                0x0800023f   Thumb Code     0  _printf_x.o(.ARM.Collect$$_printf_percent$$0000000C)
    _printf_lli                              0x08000245   Thumb Code     0  _printf_lli.o(.ARM.Collect$$_printf_percent$$0000000D)
    _printf_lld                              0x0800024b   Thumb Code     0  _printf_lld.o(.ARM.Collect$$_printf_percent$$0000000E)
    _printf_llu                              0x08000251   Thumb Code     0  _printf_llu.o(.ARM.Collect$$_printf_percent$$0000000F)
    _printf_llo                              0x08000257   Thumb Code     0  _printf_llo.o(.ARM.Collect$$_printf_percent$$00000010)
    _printf_llx                              0x0800025d   Thumb Code     0  _printf_llx.o(.ARM.Collect$$_printf_percent$$00000011)
    _printf_l                                0x08000263   Thumb Code     0  _printf_l.o(.ARM.Collect$$_printf_percent$$00000012)
    _printf_c                                0x0800026d   Thumb Code     0  _printf_c.o(.ARM.Collect$$_printf_percent$$00000013)
    _printf_s                                0x08000273   Thumb Code     0  _printf_s.o(.ARM.Collect$$_printf_percent$$00000014)
    _printf_lc                               0x08000279   Thumb Code     0  _printf_lc.o(.ARM.Collect$$_printf_percent$$00000015)
    _printf_ls                               0x0800027f   Thumb Code     0  _printf_ls.o(.ARM.Collect$$_printf_percent$$00000016)
    _printf_percent_end                      0x08000285   Thumb Code     0  _printf_percent_end.o(.ARM.Collect$$_printf_percent$$00000017)
    __rt_lib_init                            0x08000289   Thumb Code     0  libinit.o(.ARM.Collect$$libinit$$00000000)
    __rt_lib_init_fp_1                       0x0800028b   Thumb Code     0  libinit2.o(.ARM.Collect$$libinit$$00000002)
    __rt_lib_init_heap_1                     0x0800028b   Thumb Code     0  libinit2.o(.ARM.Collect$$libinit$$0000000A)
    __rt_lib_init_lc_common                  0x0800028b   Thumb Code     0  libinit2.o(.ARM.Collect$$libinit$$0000000F)
    __rt_lib_init_preinit_1                  0x0800028b   Thumb Code     0  libinit2.o(.ARM.Collect$$libinit$$00000004)
    __rt_lib_init_rand_1                     0x0800028b   Thumb Code     0  libinit2.o(.ARM.Collect$$libinit$$0000000E)
    __rt_lib_init_user_alloc_1               0x0800028b   Thumb Code     0  libinit2.o(.ARM.Collect$$libinit$$0000000C)
    __rt_lib_init_lc_collate_1               0x08000291   Thumb Code     0  libinit2.o(.ARM.Collect$$libinit$$00000011)
    __rt_lib_init_lc_ctype_2                 0x08000291   Thumb Code     0  libinit2.o(.ARM.Collect$$libinit$$00000012)
    __rt_lib_init_lc_ctype_1                 0x0800029d   Thumb Code     0  libinit2.o(.ARM.Collect$$libinit$$00000013)
    __rt_lib_init_lc_monetary_1              0x0800029d   Thumb Code     0  libinit2.o(.ARM.Collect$$libinit$$00000015)
    __rt_lib_init_lc_numeric_2               0x0800029d   Thumb Code     0  libinit2.o(.ARM.Collect$$libinit$$00000016)
    __rt_lib_init_alloca_1                   0x080002a7   Thumb Code     0  libinit2.o(.ARM.Collect$$libinit$$0000002E)
    __rt_lib_init_argv_1                     0x080002a7   Thumb Code     0  libinit2.o(.ARM.Collect$$libinit$$0000002C)
    __rt_lib_init_atexit_1                   0x080002a7   Thumb Code     0  libinit2.o(.ARM.Collect$$libinit$$0000001B)
    __rt_lib_init_clock_1                    0x080002a7   Thumb Code     0  libinit2.o(.ARM.Collect$$libinit$$00000021)
    __rt_lib_init_cpp_1                      0x080002a7   Thumb Code     0  libinit2.o(.ARM.Collect$$libinit$$00000032)
    __rt_lib_init_exceptions_1               0x080002a7   Thumb Code     0  libinit2.o(.ARM.Collect$$libinit$$00000030)
    __rt_lib_init_fp_trap_1                  0x080002a7   Thumb Code     0  libinit2.o(.ARM.Collect$$libinit$$0000001F)
    __rt_lib_init_getenv_1                   0x080002a7   Thumb Code     0  libinit2.o(.ARM.Collect$$libinit$$00000023)
    __rt_lib_init_lc_numeric_1               0x080002a7   Thumb Code     0  libinit2.o(.ARM.Collect$$libinit$$00000017)
    __rt_lib_init_lc_time_1                  0x080002a7   Thumb Code     0  libinit2.o(.ARM.Collect$$libinit$$00000019)
    __rt_lib_init_return                     0x080002a7   Thumb Code     0  libinit2.o(.ARM.Collect$$libinit$$00000033)
    __rt_lib_init_signal_1                   0x080002a7   Thumb Code     0  libinit2.o(.ARM.Collect$$libinit$$0000001D)
    __rt_lib_init_stdio_1                    0x080002a7   Thumb Code     0  libinit2.o(.ARM.Collect$$libinit$$00000025)
    __rt_lib_shutdown                        0x080002a9   Thumb Code     0  libshutdown.o(.ARM.Collect$$libshutdown$$00000000)
    __rt_lib_shutdown_fp_trap_1              0x080002ab   Thumb Code     0  libshutdown2.o(.ARM.Collect$$libshutdown$$00000006)
    __rt_lib_shutdown_heap_1                 0x080002ab   Thumb Code     0  libshutdown2.o(.ARM.Collect$$libshutdown$$0000000E)
    __rt_lib_shutdown_return                 0x080002ab   Thumb Code     0  libshutdown2.o(.ARM.Collect$$libshutdown$$0000000F)
    __rt_lib_shutdown_signal_1               0x080002ab   Thumb Code     0  libshutdown2.o(.ARM.Collect$$libshutdown$$00000009)
    __rt_lib_shutdown_stdio_1                0x080002ab   Thumb Code     0  libshutdown2.o(.ARM.Collect$$libshutdown$$00000003)
    __rt_lib_shutdown_user_alloc_1           0x080002ab   Thumb Code     0  libshutdown2.o(.ARM.Collect$$libshutdown$$0000000B)
    __rt_entry                               0x080002ad   Thumb Code     0  __rtentry.o(.ARM.Collect$$rtentry$$00000000)
    __rt_entry_presh_1                       0x080002ad   Thumb Code     0  __rtentry2.o(.ARM.Collect$$rtentry$$00000002)
    __rt_entry_sh                            0x080002ad   Thumb Code     0  __rtentry4.o(.ARM.Collect$$rtentry$$00000004)
    __rt_entry_li                            0x080002b3   Thumb Code     0  __rtentry2.o(.ARM.Collect$$rtentry$$0000000A)
    __rt_entry_postsh_1                      0x080002b3   Thumb Code     0  __rtentry2.o(.ARM.Collect$$rtentry$$00000009)
    __rt_entry_main                          0x080002b7   Thumb Code     0  __rtentry2.o(.ARM.Collect$$rtentry$$0000000D)
    __rt_entry_postli_1                      0x080002b7   Thumb Code     0  __rtentry2.o(.ARM.Collect$$rtentry$$0000000C)
    __rt_exit                                0x080002bf   Thumb Code     0  rtexit.o(.ARM.Collect$$rtexit$$00000000)
    __rt_exit_ls                             0x080002c1   Thumb Code     0  rtexit2.o(.ARM.Collect$$rtexit$$00000003)
    __rt_exit_prels_1                        0x080002c1   Thumb Code     0  rtexit2.o(.ARM.Collect$$rtexit$$00000002)
    __rt_exit_exit                           0x080002c5   Thumb Code     0  rtexit2.o(.ARM.Collect$$rtexit$$00000004)
    Systime                                  0x080002cd   Thumb Code   140  app.o(.text)
    main                                     0x080003dd   Thumb Code    72  app.o(.text)
    MP3_PlayerInit                           0x080004ad   Thumb Code    20  mp3_player.o(.text)
    SendToDAC                                0x080004eb   Thumb Code   162  mp3_player.o(.text)
    PlayMP3                                  0x0800058d   Thumb Code   316  mp3_player.o(.text)
    PowerSwitchInit                          0x080006c9   Thumb Code    48  mp3_player.o(.text)
    BSP_Init                                 0x0800073f   Thumb Code     8  bsp.o(.text)
    BSP_RNG_Read                             0x08000747   Thumb Code    88  bsp.o(.text)
    BSP_CPU_ClkFreq                          0x0800079f   Thumb Code    14  bsp.o(.text)
    BSP_CPU_TickInit                         0x080007ad   Thumb Code    24  bsp.o(.text)
    BSP_LED_On                               0x080007c5   Thumb Code    12  bsp.o(.text)
    BSP_LED_Off                              0x080007d1   Thumb Code    12  bsp.o(.text)
    BSP_LED_Toggle                           0x080007dd   Thumb Code    40  bsp.o(.text)
    CPU_TS_TmrInit                           0x08000805   Thumb Code    44  bsp.o(.text)
    CPU_TS_TmrRd                             0x08000831   Thumb Code     6  bsp.o(.text)
    BSP_IntClr                               0x0800084d   Thumb Code     2  bsp_int.o(.text)
    BSP_IntDis                               0x0800084f   Thumb Code    20  bsp_int.o(.text)
    BSP_IntDisAll                            0x08000863   Thumb Code     8  bsp_int.o(.text)
    BSP_IntEn                                0x0800086b   Thumb Code    20  bsp_int.o(.text)
    BSP_IntVectSet                           0x0800087f   Thumb Code    48  bsp_int.o(.text)
    BSP_IntPrioSet                           0x080008af   Thumb Code    54  bsp_int.o(.text)
    BSP_IntInit                              0x080008e7   Thumb Code    22  bsp_int.o(.text)
    BSP_IntHandlerWWDG                       0x08000937   Thumb Code    10  bsp_int.o(.text)
    BSP_IntHandlerPVD                        0x08000941   Thumb Code    10  bsp_int.o(.text)
    BSP_IntHandlerTAMPER                     0x0800094b   Thumb Code    10  bsp_int.o(.text)
    BSP_IntHandlerRTC                        0x08000955   Thumb Code    10  bsp_int.o(.text)
    BSP_IntHandlerFLASH                      0x0800095f   Thumb Code    10  bsp_int.o(.text)
    BSP_IntHandlerRCC                        0x08000969   Thumb Code    10  bsp_int.o(.text)
    BSP_IntHandlerEXTI0                      0x08000973   Thumb Code    10  bsp_int.o(.text)
    BSP_IntHandlerEXTI1                      0x0800097d   Thumb Code    10  bsp_int.o(.text)
    BSP_IntHandlerEXTI2                      0x08000987   Thumb Code    10  bsp_int.o(.text)
    BSP_IntHandlerEXTI3                      0x08000991   Thumb Code    10  bsp_int.o(.text)
    BSP_IntHandlerEXTI4                      0x0800099b   Thumb Code    10  bsp_int.o(.text)
    BSP_IntHandlerDMA1_CH1                   0x080009a5   Thumb Code    10  bsp_int.o(.text)
    BSP_IntHandlerDMA1_CH2                   0x080009af   Thumb Code    10  bsp_int.o(.text)
    BSP_IntHandlerDMA1_CH3                   0x080009b9   Thumb Code    10  bsp_int.o(.text)
    BSP_IntHandlerDMA1_CH4                   0x080009c3   Thumb Code    10  bsp_int.o(.text)
    BSP_IntHandlerDMA1_CH5                   0x080009cd   Thumb Code    10  bsp_int.o(.text)
    BSP_IntHandlerDMA1_CH6                   0x080009d7   Thumb Code    10  bsp_int.o(.text)
    BSP_IntHandlerDMA1_CH7                   0x080009e1   Thumb Code    10  bsp_int.o(.text)
    BSP_IntHandlerADC1_2                     0x080009eb   Thumb Code    10  bsp_int.o(.text)
    BSP_IntHandlerCAN1_TX                    0x080009f5   Thumb Code    10  bsp_int.o(.text)
    BSP_IntHandlerCAN1_RX0                   0x080009ff   Thumb Code    10  bsp_int.o(.text)
    BSP_IntHandlerCAN1_RX1                   0x08000a09   Thumb Code    10  bsp_int.o(.text)
    BSP_IntHandlerCAN1_SCE                   0x08000a13   Thumb Code    10  bsp_int.o(.text)
    BSP_IntHandlerEXTI9_5                    0x08000a1d   Thumb Code    10  bsp_int.o(.text)
    BSP_IntHandlerTIM1_BRK                   0x08000a27   Thumb Code    10  bsp_int.o(.text)
    BSP_IntHandlerTIM1_UP                    0x08000a31   Thumb Code    10  bsp_int.o(.text)
    BSP_IntHandlerTIM1_TRG_COM               0x08000a3b   Thumb Code    10  bsp_int.o(.text)
    BSP_IntHandlerTIM1_CC                    0x08000a45   Thumb Code    10  bsp_int.o(.text)
    BSP_IntHandlerTIM2                       0x08000a4f   Thumb Code    10  bsp_int.o(.text)
    BSP_IntHandlerTIM3                       0x08000a59   Thumb Code    10  bsp_int.o(.text)
    BSP_IntHandlerTIM4                       0x08000a63   Thumb Code    10  bsp_int.o(.text)
    BSP_IntHandlerI2C1_EV                    0x08000a6d   Thumb Code    10  bsp_int.o(.text)
    BSP_IntHandlerI2C1_ER                    0x08000a77   Thumb Code    10  bsp_int.o(.text)
    BSP_IntHandlerI2C2_EV                    0x08000a81   Thumb Code    10  bsp_int.o(.text)
    BSP_IntHandlerI2C2_ER                    0x08000a8b   Thumb Code    10  bsp_int.o(.text)
    BSP_IntHandlerSPI1                       0x08000a95   Thumb Code    10  bsp_int.o(.text)
    BSP_IntHandlerSPI2                       0x08000a9f   Thumb Code    10  bsp_int.o(.text)
    BSP_IntHandlerUSART1                     0x08000aa9   Thumb Code    10  bsp_int.o(.text)
    BSP_IntHandlerUSART2                     0x08000ab3   Thumb Code    10  bsp_int.o(.text)
    BSP_IntHandlerUSART3                     0x08000abd   Thumb Code    10  bsp_int.o(.text)
    BSP_IntHandlerEXTI15_10                  0x08000ac7   Thumb Code    10  bsp_int.o(.text)
    BSP_IntHandlerRTCAlarm                   0x08000ad1   Thumb Code    10  bsp_int.o(.text)
    BSP_IntHandlerUSBWakeUp                  0x08000adb   Thumb Code    10  bsp_int.o(.text)
    BSP_IntHandlerTIM8_BRK_TIM12             0x08000ae5   Thumb Code    10  bsp_int.o(.text)
    BSP_IntHandlerTIM8_UP_TIM13              0x08000aef   Thumb Code    10  bsp_int.o(.text)
    BSP_IntHandlerTIM8_TRG_COM_TIM14         0x08000af9   Thumb Code    10  bsp_int.o(.text)
    BSP_IntHandlerTIM8_CC                    0x08000b03   Thumb Code    10  bsp_int.o(.text)
    BSP_IntHandlerDMA1_STREAM7               0x08000b0d   Thumb Code    10  bsp_int.o(.text)
    BSP_IntHandlerFSMC                       0x08000b17   Thumb Code    10  bsp_int.o(.text)
    BSP_IntHandlerSDIO                       0x08000b21   Thumb Code    10  bsp_int.o(.text)
    BSP_IntHandlerTIM5                       0x08000b2b   Thumb Code    10  bsp_int.o(.text)
    BSP_IntHandlerSPI3                       0x08000b35   Thumb Code    10  bsp_int.o(.text)
    BSP_IntHandlerUSART4                     0x08000b3f   Thumb Code    10  bsp_int.o(.text)
    BSP_IntHandlerUSART5                     0x08000b49   Thumb Code    10  bsp_int.o(.text)
    BSP_IntHandlerTIM6                       0x08000b53   Thumb Code    10  bsp_int.o(.text)
    BSP_IntHandlerTIM7                       0x08000b5d   Thumb Code    10  bsp_int.o(.text)
    BSP_IntHandlerDMA2_CH1                   0x08000b67   Thumb Code    10  bsp_int.o(.text)
    BSP_IntHandlerDMA2_CH2                   0x08000b71   Thumb Code    10  bsp_int.o(.text)
    BSP_IntHandlerDMA2_CH3                   0x08000b7b   Thumb Code    10  bsp_int.o(.text)
    BSP_IntHandlerDMA2_CH4                   0x08000b85   Thumb Code    10  bsp_int.o(.text)
    BSP_IntHandlerDMA2_CH5                   0x08000b8f   Thumb Code    10  bsp_int.o(.text)
    BSP_IntHandlerETH                        0x08000b99   Thumb Code    10  bsp_int.o(.text)
    BSP_IntHandlerETHWakeup                  0x08000ba3   Thumb Code    10  bsp_int.o(.text)
    BSP_IntHandlerCAN2_TX                    0x08000bad   Thumb Code    10  bsp_int.o(.text)
    BSP_IntHandlerCAN2_RX0                   0x08000bb7   Thumb Code    10  bsp_int.o(.text)
    BSP_IntHandlerCAN2_RX1                   0x08000bc1   Thumb Code    10  bsp_int.o(.text)
    BSP_IntHandlerCAN2_SCE                   0x08000bcb   Thumb Code    10  bsp_int.o(.text)
    BSP_IntHandlerOTG                        0x08000bd5   Thumb Code    10  bsp_int.o(.text)
    BSP_IntHandlerDMA2_CH6                   0x08000bdf   Thumb Code    10  bsp_int.o(.text)
    BSP_IntHandlerDMA2_CH7                   0x08000be9   Thumb Code    10  bsp_int.o(.text)
    BSP_IntHandlerDMA2_CH8                   0x08000bf3   Thumb Code    10  bsp_int.o(.text)
    BSP_IntHandlerUSART6                     0x08000bfd   Thumb Code    10  bsp_int.o(.text)
    BSP_IntHandlerI2C3_EV                    0x08000c07   Thumb Code    10  bsp_int.o(.text)
    BSP_IntHandlerI2C3_ER                    0x08000c11   Thumb Code    10  bsp_int.o(.text)
    BSP_IntHandlerOTG_HS_EP1_OUT             0x08000c1b   Thumb Code    10  bsp_int.o(.text)
    BSP_IntHandlerOTG_HS_EP1_IN              0x08000c25   Thumb Code    10  bsp_int.o(.text)
    BSP_IntHandlerOTG_HS_WKUP                0x08000c2f   Thumb Code    10  bsp_int.o(.text)
    BSP_IntHandlerOTG_HS                     0x08000c39   Thumb Code    10  bsp_int.o(.text)
    BSP_IntHandlerDCMI                       0x08000c43   Thumb Code    10  bsp_int.o(.text)
    BSP_IntHandlerCRYP                       0x08000c4d   Thumb Code    10  bsp_int.o(.text)
    BSP_IntHandlerHASH_RNG                   0x08000c57   Thumb Code    10  bsp_int.o(.text)
    BSP_Ser_Init                             0x08000cb9   Thumb Code   220  bsp_ser.o(.text)
    BSP_Ser_WrStr                            0x08000dc3   Thumb Code    68  bsp_ser.o(.text)
    BSP_Ser_Printf                           0x08000e07   Thumb Code    38  bsp_ser.o(.text)
    BSP_Ser_RdByte                           0x08000e57   Thumb Code    26  bsp_ser.o(.text)
    BSP_Ser_RdStr                            0x08000e71   Thumb Code   142  bsp_ser.o(.text)
    BSP_Ser_WrByte                           0x08000eff   Thumb Code    26  bsp_ser.o(.text)
    BSP_OS_SemCreate                         0x08000f61   Thumb Code    34  bsp_os.o(.text)
    BSP_OS_SemWait                           0x08000f83   Thumb Code    50  bsp_os.o(.text)
    BSP_OS_SemPost                           0x08000fb5   Thumb Code    28  bsp_os.o(.text)
    BSP_OS_TimeDlyMs                         0x08000fd1   Thumb Code    68  bsp_os.o(.text)
    BSP_SD_SendCmd                           0x08001019   Thumb Code    36  bsp_sdio.o(.text)
    BSP_SD_SendCmd0                          0x0800103d   Thumb Code    36  bsp_sdio.o(.text)
    BSP_SD_SendCmd2                          0x08001061   Thumb Code    80  bsp_sdio.o(.text)
    BSP_SD_SendCmd3                          0x080010b1   Thumb Code   152  bsp_sdio.o(.text)
    BSP_SD_SendCmd7                          0x08001149   Thumb Code    52  bsp_sdio.o(.text)
    BSP_SD_SendCmd8                          0x0800117d   Thumb Code    86  bsp_sdio.o(.text)
    BSP_SD_SendCmd9                          0x080011d3   Thumb Code    82  bsp_sdio.o(.text)
    BSP_SD_SendCmd17                         0x08001225   Thumb Code    52  bsp_sdio.o(.text)
    BSP_SD_SendCmd24                         0x08001259   Thumb Code    52  bsp_sdio.o(.text)
    BSP_SD_SendCmd32                         0x0800128d   Thumb Code    52  bsp_sdio.o(.text)
    BSP_SD_SendCmd33                         0x080012c1   Thumb Code    52  bsp_sdio.o(.text)
    BSP_SD_SendCmd38                         0x080012f5   Thumb Code    50  bsp_sdio.o(.text)
    SD_SendACMD6                             0x08001327   Thumb Code    52  bsp_sdio.o(.text)
    SD_SendACMD41                            0x0800135b   Thumb Code    64  bsp_sdio.o(.text)
    BSP_SD_SendCmd55                         0x0800139b   Thumb Code    82  bsp_sdio.o(.text)
    BSP_SD_GpioInit                          0x080013ed   Thumb Code   152  bsp_sdio.o(.text)
    BSP_SD_Detect                            0x08001485   Thumb Code    20  bsp_sdio.o(.text)
    BSP_SD_Init                              0x08001499   Thumb Code   246  bsp_sdio.o(.text)
    BSP_SD_Erase                             0x0800158f   Thumb Code    72  bsp_sdio.o(.text)
    BSP_SD_WriteBlock                        0x080015d7   Thumb Code   318  bsp_sdio.o(.text)
    BSP_SD_ReadBlock                         0x08001715   Thumb Code   308  bsp_sdio.o(.text)
    Reset_Handler                            0x08001849   Thumb Code     8  cstartup.o(.text)
    App_NMI_ISR                              0x08001851   Thumb Code     2  cstartup.o(.text)
    App_Fault_ISR                            0x08001853   Thumb Code     2  cstartup.o(.text)
    App_MemFault_ISR                         0x08001855   Thumb Code     2  cstartup.o(.text)
    App_BusFault_ISR                         0x08001857   Thumb Code     2  cstartup.o(.text)
    App_UsageFault_ISR                       0x08001859   Thumb Code     2  cstartup.o(.text)
    App_Spurious_ISR                         0x0800185b   Thumb Code     2  cstartup.o(.text)
    App_Reserved_ISR                         0x0800185d   Thumb Code     2  cstartup.o(.text)
    __user_initial_stackheap                 0x08001861   Thumb Code     0  cstartup.o(.text)
    TIM6_Init                                0x08001885   Thumb Code    66  timer.o(.text)
    SetBitRate                               0x080018c7   Thumb Code    12  timer.o(.text)
    TIM7_Init                                0x080018d3   Thumb Code    84  timer.o(.text)
    TIM7_Start                               0x08001927   Thumb Code    38  timer.o(.text)
    TIM7_Stop                                0x0800194d   Thumb Code    12  timer.o(.text)
    TIM7_IRQHandler                          0x08001959   Thumb Code    38  timer.o(.text)
    TIM2_Init                                0x0800197f   Thumb Code    92  timer.o(.text)
    TIM2_IRQHandler                          0x080019db   Thumb Code    30  timer.o(.text)
    TIM3_Init                                0x080019f9   Thumb Code    90  timer.o(.text)
    TIM3_IRQHandler                          0x08001a53   Thumb Code    30  timer.o(.text)
    printClockFreq                           0x08001a8d   Thumb Code    14  util.o(.text)
    NVIC_Config                              0x08001a9b   Thumb Code    66  util.o(.text)
    checkSum                                 0x08001add   Thumb Code    30  util.o(.text)
    BSP_DAC_Init                             0x08001b21   Thumb Code    72  bsp_dac.o(.text)
    BSP_DMA_Init                             0x08001b6d   Thumb Code    84  bsp_dma.o(.text)
    NVIC_PriorityGroupConfig                 0x08001bc9   Thumb Code    10  misc.o(.text)
    NVIC_Init                                0x08001bd3   Thumb Code   106  misc.o(.text)
    NVIC_SetVectorTable                      0x08001c3d   Thumb Code    14  misc.o(.text)
    NVIC_SystemLPConfig                      0x08001c4b   Thumb Code    34  misc.o(.text)
    SysTick_CLKSourceConfig                  0x08001c6d   Thumb Code    40  misc.o(.text)
    DAC_DeInit                               0x08001ca9   Thumb Code    22  stm32f2xx_dac.o(.text)
    DAC_Init                                 0x08001cbf   Thumb Code    46  stm32f2xx_dac.o(.text)
    DAC_StructInit                           0x08001ced   Thumb Code    12  stm32f2xx_dac.o(.text)
    DAC_Cmd                                  0x08001cf9   Thumb Code    34  stm32f2xx_dac.o(.text)
    DAC_SoftwareTriggerCmd                   0x08001d1b   Thumb Code    48  stm32f2xx_dac.o(.text)
    DAC_DualSoftwareTriggerCmd               0x08001d4b   Thumb Code    38  stm32f2xx_dac.o(.text)
    DAC_WaveGenerationCmd                    0x08001d71   Thumb Code    36  stm32f2xx_dac.o(.text)
    DAC_SetChannel1Data                      0x08001d95   Thumb Code    26  stm32f2xx_dac.o(.text)
    DAC_SetChannel2Data                      0x08001daf   Thumb Code    26  stm32f2xx_dac.o(.text)
    DAC_SetDualChannelData                   0x08001dc9   Thumb Code    32  stm32f2xx_dac.o(.text)
    DAC_GetDataOutputValue                   0x08001de9   Thumb Code    32  stm32f2xx_dac.o(.text)
    DAC_DMACmd                               0x08001e09   Thumb Code    38  stm32f2xx_dac.o(.text)
    DAC_ITConfig                             0x08001e2f   Thumb Code    36  stm32f2xx_dac.o(.text)
    DAC_GetFlagStatus                        0x08001e53   Thumb Code    28  stm32f2xx_dac.o(.text)
    DAC_ClearFlag                            0x08001e6f   Thumb Code    12  stm32f2xx_dac.o(.text)
    DAC_GetITStatus                          0x08001e7b   Thumb Code    44  stm32f2xx_dac.o(.text)
    DAC_ClearITPendingBit                    0x08001ea7   Thumb Code    12  stm32f2xx_dac.o(.text)
    DMA_DeInit                               0x08001eb9   Thumb Code   324  stm32f2xx_dma.o(.text)
    DMA_Init                                 0x08001ffd   Thumb Code    82  stm32f2xx_dma.o(.text)
    DMA_StructInit                           0x0800204f   Thumb Code    34  stm32f2xx_dma.o(.text)
    DMA_Cmd                                  0x08002071   Thumb Code    22  stm32f2xx_dma.o(.text)
    DMA_PeriphIncOffsetSizeConfig            0x08002087   Thumb Code    22  stm32f2xx_dma.o(.text)
    DMA_FlowControllerConfig                 0x0800209d   Thumb Code    22  stm32f2xx_dma.o(.text)
    DMA_SetCurrDataCounter                   0x080020b3   Thumb Code     4  stm32f2xx_dma.o(.text)
    DMA_GetCurrDataCounter                   0x080020b7   Thumb Code     8  stm32f2xx_dma.o(.text)
    DMA_DoubleBufferModeConfig               0x080020bf   Thumb Code    24  stm32f2xx_dma.o(.text)
    DMA_DoubleBufferModeCmd                  0x080020d7   Thumb Code    22  stm32f2xx_dma.o(.text)
    DMA_MemoryTargetConfig                   0x080020ed   Thumb Code    10  stm32f2xx_dma.o(.text)
    DMA_GetCurrentMemoryTarget               0x080020f7   Thumb Code    20  stm32f2xx_dma.o(.text)
    DMA_GetCmdStatus                         0x0800210b   Thumb Code    20  stm32f2xx_dma.o(.text)
    DMA_GetFIFOStatus                        0x0800211f   Thumb Code    12  stm32f2xx_dma.o(.text)
    DMA_GetFlagStatus                        0x0800212b   Thumb Code    56  stm32f2xx_dma.o(.text)
    DMA_ClearFlag                            0x08002163   Thumb Code    40  stm32f2xx_dma.o(.text)
    DMA_ITConfig                             0x0800218b   Thumb Code    58  stm32f2xx_dma.o(.text)
    DMA_GetITStatus                          0x080021c5   Thumb Code    84  stm32f2xx_dma.o(.text)
    DMA_ClearITPendingBit                    0x08002219   Thumb Code    40  stm32f2xx_dma.o(.text)
    GPIO_DeInit                              0x08002261   Thumb Code   220  stm32f2xx_gpio.o(.text)
    GPIO_Init                                0x0800233d   Thumb Code   144  stm32f2xx_gpio.o(.text)
    GPIO_StructInit                          0x080023cd   Thumb Code    18  stm32f2xx_gpio.o(.text)
    GPIO_PinLockConfig                       0x080023df   Thumb Code    34  stm32f2xx_gpio.o(.text)
    GPIO_ReadInputDataBit                    0x08002401   Thumb Code    18  stm32f2xx_gpio.o(.text)
    GPIO_ReadInputData                       0x08002413   Thumb Code     8  stm32f2xx_gpio.o(.text)
    GPIO_ReadOutputDataBit                   0x0800241b   Thumb Code    18  stm32f2xx_gpio.o(.text)
    GPIO_ReadOutputData                      0x0800242d   Thumb Code     8  stm32f2xx_gpio.o(.text)
    GPIO_SetBits                             0x08002435   Thumb Code     4  stm32f2xx_gpio.o(.text)
    GPIO_ResetBits                           0x08002439   Thumb Code     4  stm32f2xx_gpio.o(.text)
    GPIO_WriteBit                            0x0800243d   Thumb Code    10  stm32f2xx_gpio.o(.text)
    GPIO_Write                               0x08002447   Thumb Code     4  stm32f2xx_gpio.o(.text)
    GPIO_ToggleBits                          0x0800244b   Thumb Code     8  stm32f2xx_gpio.o(.text)
    GPIO_PinAFConfig                         0x08002453   Thumb Code    70  stm32f2xx_gpio.o(.text)
    RCC_DeInit                               0x080024bd   Thumb Code    60  stm32f2xx_rcc.o(.text)
    RCC_HSEConfig                            0x080024f9   Thumb Code    14  stm32f2xx_rcc.o(.text)
    RCC_GetFlagStatus                        0x08002507   Thumb Code    60  stm32f2xx_rcc.o(.text)
    RCC_WaitForHSEStartUp                    0x08002543   Thumb Code    56  stm32f2xx_rcc.o(.text)
    RCC_AdjustHSICalibrationValue            0x0800257b   Thumb Code    20  stm32f2xx_rcc.o(.text)
    RCC_HSICmd                               0x0800258f   Thumb Code     6  stm32f2xx_rcc.o(.text)
    RCC_LSEConfig                            0x08002595   Thumb Code    46  stm32f2xx_rcc.o(.text)
    RCC_LSICmd                               0x080025c3   Thumb Code     6  stm32f2xx_rcc.o(.text)
    RCC_PLLConfig                            0x080025c9   Thumb Code    32  stm32f2xx_rcc.o(.text)
    RCC_PLLCmd                               0x080025e9   Thumb Code     6  stm32f2xx_rcc.o(.text)
    RCC_PLLI2SConfig                         0x080025ef   Thumb Code    14  stm32f2xx_rcc.o(.text)
    RCC_PLLI2SCmd                            0x080025fd   Thumb Code     6  stm32f2xx_rcc.o(.text)
    RCC_ClockSecuritySystemCmd               0x08002603   Thumb Code     6  stm32f2xx_rcc.o(.text)
    RCC_MCO1Config                           0x08002609   Thumb Code    28  stm32f2xx_rcc.o(.text)
    RCC_MCO2Config                           0x08002625   Thumb Code    28  stm32f2xx_rcc.o(.text)
    RCC_SYSCLKConfig                         0x08002641   Thumb Code    20  stm32f2xx_rcc.o(.text)
    RCC_GetSYSCLKSource                      0x08002655   Thumb Code    12  stm32f2xx_rcc.o(.text)
    RCC_HCLKConfig                           0x08002661   Thumb Code    20  stm32f2xx_rcc.o(.text)
    RCC_PCLK1Config                          0x08002675   Thumb Code    20  stm32f2xx_rcc.o(.text)
    RCC_PCLK2Config                          0x08002689   Thumb Code    22  stm32f2xx_rcc.o(.text)
    RCC_GetClocksFreq                        0x0800269f   Thumb Code   222  stm32f2xx_rcc.o(.text)
    RCC_RTCCLKConfig                         0x0800277d   Thumb Code    54  stm32f2xx_rcc.o(.text)
    RCC_RTCCLKCmd                            0x080027b3   Thumb Code     8  stm32f2xx_rcc.o(.text)
    RCC_BackupResetCmd                       0x080027bb   Thumb Code     8  stm32f2xx_rcc.o(.text)
    RCC_I2SCLKConfig                         0x080027c3   Thumb Code     6  stm32f2xx_rcc.o(.text)
    RCC_AHB1PeriphClockCmd                   0x080027c9   Thumb Code    34  stm32f2xx_rcc.o(.text)
    RCC_AHB2PeriphClockCmd                   0x080027eb   Thumb Code    34  stm32f2xx_rcc.o(.text)
    RCC_AHB3PeriphClockCmd                   0x0800280d   Thumb Code    34  stm32f2xx_rcc.o(.text)
    RCC_APB1PeriphClockCmd                   0x0800282f   Thumb Code    34  stm32f2xx_rcc.o(.text)
    RCC_APB2PeriphClockCmd                   0x08002851   Thumb Code    34  stm32f2xx_rcc.o(.text)
    RCC_AHB1PeriphResetCmd                   0x08002873   Thumb Code    34  stm32f2xx_rcc.o(.text)
    RCC_AHB2PeriphResetCmd                   0x08002895   Thumb Code    72  stm32f2xx_rcc.o(.text)
    RCC_AHB3PeriphResetCmd                   0x080028dd   Thumb Code    34  stm32f2xx_rcc.o(.text)
    RCC_APB1PeriphResetCmd                   0x080028ff   Thumb Code    34  stm32f2xx_rcc.o(.text)
    RCC_APB2PeriphResetCmd                   0x08002921   Thumb Code    34  stm32f2xx_rcc.o(.text)
    RCC_AHB1PeriphClockLPModeCmd             0x08002943   Thumb Code    34  stm32f2xx_rcc.o(.text)
    RCC_AHB2PeriphClockLPModeCmd             0x08002965   Thumb Code    34  stm32f2xx_rcc.o(.text)
    RCC_AHB3PeriphClockLPModeCmd             0x08002987   Thumb Code    34  stm32f2xx_rcc.o(.text)
    RCC_APB1PeriphClockLPModeCmd             0x080029a9   Thumb Code    34  stm32f2xx_rcc.o(.text)
    RCC_APB2PeriphClockLPModeCmd             0x080029cb   Thumb Code    34  stm32f2xx_rcc.o(.text)
    RCC_ITConfig                             0x080029ed   Thumb Code    34  stm32f2xx_rcc.o(.text)
    RCC_ClearFlag                            0x08002a0f   Thumb Code    18  stm32f2xx_rcc.o(.text)
    RCC_GetITStatus                          0x08002a21   Thumb Code    22  stm32f2xx_rcc.o(.text)
    RCC_ClearITPendingBit                    0x08002a37   Thumb Code     8  stm32f2xx_rcc.o(.text)
    SDIO_DeInit                              0x08002a45   Thumb Code    22  stm32f2xx_sdio.o(.text)
    SDIO_Init                                0x08002a5b   Thumb Code    42  stm32f2xx_sdio.o(.text)
    SDIO_StructInit                          0x08002a85   Thumb Code    16  stm32f2xx_sdio.o(.text)
    SDIO_ClockCmd                            0x08002a95   Thumb Code     6  stm32f2xx_sdio.o(.text)
    SDIO_SetPowerState                       0x08002a9b   Thumb Code    26  stm32f2xx_sdio.o(.text)
    SDIO_GetPowerState                       0x08002ab5   Thumb Code    12  stm32f2xx_sdio.o(.text)
    SDIO_SendCommand                         0x08002ac1   Thumb Code    42  stm32f2xx_sdio.o(.text)
    SDIO_CmdStructInit                       0x08002aeb   Thumb Code    14  stm32f2xx_sdio.o(.text)
    SDIO_GetCommandResponse                  0x08002af9   Thumb Code    10  stm32f2xx_sdio.o(.text)
    SDIO_GetResponse                         0x08002b03   Thumb Code    22  stm32f2xx_sdio.o(.text)
    SDIO_DataConfig                          0x08002b19   Thumb Code    48  stm32f2xx_sdio.o(.text)
    SDIO_DataStructInit                      0x08002b49   Thumb Code    20  stm32f2xx_sdio.o(.text)
    SDIO_GetDataCounter                      0x08002b5d   Thumb Code     8  stm32f2xx_sdio.o(.text)
    SDIO_ReadData                            0x08002b65   Thumb Code     8  stm32f2xx_sdio.o(.text)
    SDIO_WriteData                           0x08002b6d   Thumb Code     8  stm32f2xx_sdio.o(.text)
    SDIO_GetFIFOCount                        0x08002b75   Thumb Code     8  stm32f2xx_sdio.o(.text)
    SDIO_StartSDIOReadWait                   0x08002b7d   Thumb Code     6  stm32f2xx_sdio.o(.text)
    SDIO_StopSDIOReadWait                    0x08002b83   Thumb Code     8  stm32f2xx_sdio.o(.text)
    SDIO_SetSDIOReadWaitMode                 0x08002b8b   Thumb Code     8  stm32f2xx_sdio.o(.text)
    SDIO_SetSDIOOperation                    0x08002b93   Thumb Code     8  stm32f2xx_sdio.o(.text)
    SDIO_SendSDIOSuspendCmd                  0x08002b9b   Thumb Code     6  stm32f2xx_sdio.o(.text)
    SDIO_CommandCompletionCmd                0x08002ba1   Thumb Code     8  stm32f2xx_sdio.o(.text)
    SDIO_CEATAITCmd                          0x08002ba9   Thumb Code    12  stm32f2xx_sdio.o(.text)
    SDIO_SendCEATACmd                        0x08002bb5   Thumb Code     8  stm32f2xx_sdio.o(.text)
    SDIO_DMACmd                              0x08002bbd   Thumb Code     8  stm32f2xx_sdio.o(.text)
    SDIO_ITConfig                            0x08002bc5   Thumb Code    34  stm32f2xx_sdio.o(.text)
    SDIO_GetFlagStatus                       0x08002be7   Thumb Code    22  stm32f2xx_sdio.o(.text)
    SDIO_ClearFlag                           0x08002bfd   Thumb Code     8  stm32f2xx_sdio.o(.text)
    SDIO_GetITStatus                         0x08002c05   Thumb Code    22  stm32f2xx_sdio.o(.text)
    SDIO_ClearITPendingBit                   0x08002c1b   Thumb Code     8  stm32f2xx_sdio.o(.text)
    TIM_DeInit                               0x08002c35   Thumb Code   346  stm32f2xx_tim.o(.text)
    TIM_TimeBaseInit                         0x08002d8f   Thumb Code   104  stm32f2xx_tim.o(.text)
    TIM_TimeBaseStructInit                   0x08002df7   Thumb Code    18  stm32f2xx_tim.o(.text)
    TIM_PrescalerConfig                      0x08002e09   Thumb Code     6  stm32f2xx_tim.o(.text)
    TIM_CounterModeConfig                    0x08002e0f   Thumb Code    18  stm32f2xx_tim.o(.text)
    TIM_SetCounter                           0x08002e21   Thumb Code     4  stm32f2xx_tim.o(.text)
    TIM_SetAutoreload                        0x08002e25   Thumb Code     4  stm32f2xx_tim.o(.text)
    TIM_GetCounter                           0x08002e29   Thumb Code     6  stm32f2xx_tim.o(.text)
    TIM_GetPrescaler                         0x08002e2f   Thumb Code     6  stm32f2xx_tim.o(.text)
    TIM_UpdateDisableConfig                  0x08002e35   Thumb Code    24  stm32f2xx_tim.o(.text)
    TIM_UpdateRequestConfig                  0x08002e4d   Thumb Code    24  stm32f2xx_tim.o(.text)
    TIM_ARRPreloadConfig                     0x08002e65   Thumb Code    24  stm32f2xx_tim.o(.text)
    TIM_SelectOnePulseMode                   0x08002e7d   Thumb Code    18  stm32f2xx_tim.o(.text)
    TIM_SetClockDivision                     0x08002e8f   Thumb Code    18  stm32f2xx_tim.o(.text)
    TIM_Cmd                                  0x08002ea1   Thumb Code    24  stm32f2xx_tim.o(.text)
    TIM_OC1Init                              0x08002eb9   Thumb Code   114  stm32f2xx_tim.o(.text)
    TIM_OC2Init                              0x08002f2b   Thumb Code   154  stm32f2xx_tim.o(.text)
    TIM_OC3Init                              0x08002fc5   Thumb Code   204  stm32f2xx_tim.o(.text)
    TIM_OC4Init                              0x08003091   Thumb Code   112  stm32f2xx_tim.o(.text)
    TIM_OCStructInit                         0x08003101   Thumb Code    20  stm32f2xx_tim.o(.text)
    TIM_SelectOCxM                           0x08003115   Thumb Code    86  stm32f2xx_tim.o(.text)
    TIM_SetCompare1                          0x0800316b   Thumb Code     4  stm32f2xx_tim.o(.text)
    TIM_SetCompare2                          0x0800316f   Thumb Code     4  stm32f2xx_tim.o(.text)
    TIM_SetCompare3                          0x08003173   Thumb Code     4  stm32f2xx_tim.o(.text)
    TIM_SetCompare4                          0x08003177   Thumb Code     4  stm32f2xx_tim.o(.text)
    TIM_ForcedOC1Config                      0x0800317b   Thumb Code    18  stm32f2xx_tim.o(.text)
    TIM_ForcedOC2Config                      0x0800318d   Thumb Code    26  stm32f2xx_tim.o(.text)
    TIM_ForcedOC3Config                      0x080031a7   Thumb Code    18  stm32f2xx_tim.o(.text)
    TIM_ForcedOC4Config                      0x080031b9   Thumb Code    26  stm32f2xx_tim.o(.text)
    TIM_OC1PreloadConfig                     0x080031d3   Thumb Code    18  stm32f2xx_tim.o(.text)
    TIM_OC2PreloadConfig                     0x080031e5   Thumb Code    26  stm32f2xx_tim.o(.text)
    TIM_OC3PreloadConfig                     0x080031ff   Thumb Code    18  stm32f2xx_tim.o(.text)
    TIM_OC4PreloadConfig                     0x08003211   Thumb Code    26  stm32f2xx_tim.o(.text)
    TIM_OC1FastConfig                        0x0800322b   Thumb Code    18  stm32f2xx_tim.o(.text)
    TIM_OC2FastConfig                        0x0800323d   Thumb Code    26  stm32f2xx_tim.o(.text)
    TIM_OC3FastConfig                        0x08003257   Thumb Code    18  stm32f2xx_tim.o(.text)
    TIM_OC4FastConfig                        0x08003269   Thumb Code    26  stm32f2xx_tim.o(.text)
    TIM_ClearOC1Ref                          0x08003283   Thumb Code    18  stm32f2xx_tim.o(.text)
    TIM_ClearOC2Ref                          0x08003295   Thumb Code    24  stm32f2xx_tim.o(.text)
    TIM_ClearOC3Ref                          0x080032ad   Thumb Code    18  stm32f2xx_tim.o(.text)
    TIM_ClearOC4Ref                          0x080032bf   Thumb Code    24  stm32f2xx_tim.o(.text)
    TIM_OC1PolarityConfig                    0x080032d7   Thumb Code    18  stm32f2xx_tim.o(.text)
    TIM_OC1NPolarityConfig                   0x080032e9   Thumb Code    18  stm32f2xx_tim.o(.text)
    TIM_OC2PolarityConfig                    0x080032fb   Thumb Code    26  stm32f2xx_tim.o(.text)
    TIM_OC2NPolarityConfig                   0x08003315   Thumb Code    26  stm32f2xx_tim.o(.text)
    TIM_OC3PolarityConfig                    0x0800332f   Thumb Code    26  stm32f2xx_tim.o(.text)
    TIM_OC3NPolarityConfig                   0x08003349   Thumb Code    26  stm32f2xx_tim.o(.text)
    TIM_OC4PolarityConfig                    0x08003363   Thumb Code    26  stm32f2xx_tim.o(.text)
    TIM_CCxCmd                               0x0800337d   Thumb Code    30  stm32f2xx_tim.o(.text)
    TIM_CCxNCmd                              0x0800339b   Thumb Code    30  stm32f2xx_tim.o(.text)
    TIM_SetIC4Prescaler                      0x080033b9   Thumb Code    26  stm32f2xx_tim.o(.text)
    TIM_SetIC3Prescaler                      0x08003423   Thumb Code    18  stm32f2xx_tim.o(.text)
    TIM_SetIC2Prescaler                      0x0800347d   Thumb Code    26  stm32f2xx_tim.o(.text)
    TIM_SetIC1Prescaler                      0x080034f1   Thumb Code    18  stm32f2xx_tim.o(.text)
    TIM_ICInit                               0x0800353d   Thumb Code   110  stm32f2xx_tim.o(.text)
    TIM_ICStructInit                         0x080035ab   Thumb Code    18  stm32f2xx_tim.o(.text)
    TIM_PWMIConfig                           0x080035bd   Thumb Code   124  stm32f2xx_tim.o(.text)
    TIM_GetCapture1                          0x08003639   Thumb Code     6  stm32f2xx_tim.o(.text)
    TIM_GetCapture2                          0x0800363f   Thumb Code     6  stm32f2xx_tim.o(.text)
    TIM_GetCapture3                          0x08003645   Thumb Code     6  stm32f2xx_tim.o(.text)
    TIM_GetCapture4                          0x0800364b   Thumb Code     6  stm32f2xx_tim.o(.text)
    TIM_BDTRConfig                           0x08003651   Thumb Code    32  stm32f2xx_tim.o(.text)
    TIM_BDTRStructInit                       0x08003671   Thumb Code    18  stm32f2xx_tim.o(.text)
    TIM_CtrlPWMOutputs                       0x08003683   Thumb Code    30  stm32f2xx_tim.o(.text)
    TIM_SelectCOM                            0x080036a1   Thumb Code    24  stm32f2xx_tim.o(.text)
    TIM_CCPreloadControl                     0x080036b9   Thumb Code    24  stm32f2xx_tim.o(.text)
    TIM_ITConfig                             0x080036d1   Thumb Code    18  stm32f2xx_tim.o(.text)
    TIM_GenerateEvent                        0x080036e3   Thumb Code     4  stm32f2xx_tim.o(.text)
    TIM_GetFlagStatus                        0x080036e7   Thumb Code    18  stm32f2xx_tim.o(.text)
    TIM_ClearFlag                            0x080036f9   Thumb Code     6  stm32f2xx_tim.o(.text)
    TIM_GetITStatus                          0x080036ff   Thumb Code    34  stm32f2xx_tim.o(.text)
    TIM_ClearITPendingBit                    0x08003721   Thumb Code     6  stm32f2xx_tim.o(.text)
    TIM_DMAConfig                            0x08003727   Thumb Code    10  stm32f2xx_tim.o(.text)
    TIM_DMACmd                               0x08003731   Thumb Code    18  stm32f2xx_tim.o(.text)
    TIM_SelectCCDMA                          0x08003743   Thumb Code    24  stm32f2xx_tim.o(.text)
    TIM_InternalClockConfig                  0x0800375b   Thumb Code    12  stm32f2xx_tim.o(.text)
    TIM_SelectInputTrigger                   0x08003767   Thumb Code    18  stm32f2xx_tim.o(.text)
    TIM_ITRxExternalClockConfig              0x08003779   Thumb Code    24  stm32f2xx_tim.o(.text)
    TIM_TIxExternalClockConfig               0x08003791   Thumb Code    62  stm32f2xx_tim.o(.text)
    TIM_ETRConfig                            0x080037cf   Thumb Code    28  stm32f2xx_tim.o(.text)
    TIM_ETRClockMode1Config                  0x080037eb   Thumb Code    54  stm32f2xx_tim.o(.text)
    TIM_ETRClockMode2Config                  0x08003821   Thumb Code    32  stm32f2xx_tim.o(.text)
    TIM_SelectOutputTrigger                  0x08003841   Thumb Code    18  stm32f2xx_tim.o(.text)
    TIM_SelectSlaveMode                      0x08003853   Thumb Code    18  stm32f2xx_tim.o(.text)
    TIM_SelectMasterSlaveMode                0x08003865   Thumb Code    18  stm32f2xx_tim.o(.text)
    TIM_EncoderInterfaceConfig               0x08003877   Thumb Code    66  stm32f2xx_tim.o(.text)
    TIM_SelectHallSensor                     0x080038b9   Thumb Code    24  stm32f2xx_tim.o(.text)
    TIM_RemapConfig                          0x080038d1   Thumb Code     6  stm32f2xx_tim.o(.text)
    USART_DeInit                             0x080038d9   Thumb Code   156  stm32f2xx_usart.o(.text)
    USART_Init                               0x08003975   Thumb Code   204  stm32f2xx_usart.o(.text)
    USART_StructInit                         0x08003a41   Thumb Code    24  stm32f2xx_usart.o(.text)
    USART_ClockInit                          0x08003a59   Thumb Code    32  stm32f2xx_usart.o(.text)
    USART_ClockStructInit                    0x08003a79   Thumb Code    12  stm32f2xx_usart.o(.text)
    USART_Cmd                                0x08003a85   Thumb Code    24  stm32f2xx_usart.o(.text)
    USART_SetPrescaler                       0x08003a9d   Thumb Code    16  stm32f2xx_usart.o(.text)
    USART_OverSampling8Cmd                   0x08003aad   Thumb Code    22  stm32f2xx_usart.o(.text)
    USART_OneBitMethodCmd                    0x08003ac3   Thumb Code    24  stm32f2xx_usart.o(.text)
    USART_SendData                           0x08003adb   Thumb Code     8  stm32f2xx_usart.o(.text)
    USART_ReceiveData                        0x08003ae3   Thumb Code    10  stm32f2xx_usart.o(.text)
    USART_SetAddress                         0x08003aed   Thumb Code    18  stm32f2xx_usart.o(.text)
    USART_ReceiverWakeUpCmd                  0x08003aff   Thumb Code    24  stm32f2xx_usart.o(.text)
    USART_WakeUpConfig                       0x08003b17   Thumb Code    18  stm32f2xx_usart.o(.text)
    USART_LINBreakDetectLengthConfig         0x08003b29   Thumb Code    18  stm32f2xx_usart.o(.text)
    USART_LINCmd                             0x08003b3b   Thumb Code    24  stm32f2xx_usart.o(.text)
    USART_SendBreak                          0x08003b53   Thumb Code    10  stm32f2xx_usart.o(.text)
    USART_HalfDuplexCmd                      0x08003b5d   Thumb Code    24  stm32f2xx_usart.o(.text)
    USART_SetGuardTime                       0x08003b75   Thumb Code    16  stm32f2xx_usart.o(.text)
    USART_SmartCardCmd                       0x08003b85   Thumb Code    24  stm32f2xx_usart.o(.text)
    USART_SmartCardNACKCmd                   0x08003b9d   Thumb Code    24  stm32f2xx_usart.o(.text)
    USART_IrDAConfig                         0x08003bb5   Thumb Code    18  stm32f2xx_usart.o(.text)
    USART_IrDACmd                            0x08003bc7   Thumb Code    24  stm32f2xx_usart.o(.text)
    USART_DMACmd                             0x08003bdf   Thumb Code    18  stm32f2xx_usart.o(.text)
    USART_ITConfig                           0x08003bf1   Thumb Code    74  stm32f2xx_usart.o(.text)
    USART_GetFlagStatus                      0x08003c3b   Thumb Code    26  stm32f2xx_usart.o(.text)
    USART_ClearFlag                          0x08003c55   Thumb Code    18  stm32f2xx_usart.o(.text)
    USART_GetITStatus                        0x08003c67   Thumb Code   110  stm32f2xx_usart.o(.text)
    USART_ClearITPendingBit                  0x08003cd5   Thumb Code    30  stm32f2xx_usart.o(.text)
    ASCII_IsAlpha                            0x08003cf3   Thumb Code    48  lib_ascii.o(.text)
    ASCII_IsAlphaNum                         0x08003d23   Thumb Code    76  lib_ascii.o(.text)
    ASCII_IsLower                            0x08003d6f   Thumb Code    20  lib_ascii.o(.text)
    ASCII_IsUpper                            0x08003d83   Thumb Code    20  lib_ascii.o(.text)
    ASCII_IsDig                              0x08003d97   Thumb Code    20  lib_ascii.o(.text)
    ASCII_IsDigOct                           0x08003dab   Thumb Code    20  lib_ascii.o(.text)
    ASCII_IsDigHex                           0x08003dbf   Thumb Code    36  lib_ascii.o(.text)
    ASCII_IsBlank                            0x08003de3   Thumb Code    20  lib_ascii.o(.text)
    ASCII_IsSpace                            0x08003df7   Thumb Code    36  lib_ascii.o(.text)
    ASCII_IsPrint                            0x08003e1b   Thumb Code    20  lib_ascii.o(.text)
    ASCII_IsGraph                            0x08003e2f   Thumb Code    20  lib_ascii.o(.text)
    ASCII_IsPunct                            0x08003e43   Thumb Code   134  lib_ascii.o(.text)
    ASCII_IsCtrl                             0x08003ec9   Thumb Code    26  lib_ascii.o(.text)
    ASCII_ToLower                            0x08003ee3   Thumb Code    32  lib_ascii.o(.text)
    ASCII_ToUpper                            0x08003f03   Thumb Code    32  lib_ascii.o(.text)
    ASCII_Cmp                                0x08003f23   Thumb Code    38  lib_ascii.o(.text)
    Mem_Init                                 0x08003f49   Thumb Code    54  lib_mem.o(.text)
    Mem_Set                                  0x08003f7f   Thumb Code    98  lib_mem.o(.text)
    Mem_Clr                                  0x08003fe1   Thumb Code    18  lib_mem.o(.text)
    Mem_Move                                 0x08003ff3   Thumb Code   204  lib_mem.o(.text)
    Mem_Cmp                                  0x080040bf   Thumb Code   192  lib_mem.o(.text)
    Mem_HeapAlloc                            0x08004273   Thumb Code   256  lib_mem.o(.text)
    Mem_SegGetSizeRem                        0x08004373   Thumb Code   214  lib_mem.o(.text)
    Mem_HeapGetSizeRem                       0x08004449   Thumb Code    22  lib_mem.o(.text)
    Mem_PoolClr                              0x0800445f   Thumb Code    78  lib_mem.o(.text)
    Mem_PoolCreate                           0x080044ad   Thumb Code  1076  lib_mem.o(.text)
    Mem_PoolBlkGetNbrAvail                   0x080048e1   Thumb Code   128  lib_mem.o(.text)
    Mem_PoolBlkGet                           0x08004961   Thumb Code   224  lib_mem.o(.text)
    Mem_PoolBlkGetUsedAtIx                   0x08004a41   Thumb Code   212  lib_mem.o(.text)
    Mem_PoolBlkFree                          0x08004b7b   Thumb Code   338  lib_mem.o(.text)
    Mem_PoolBlkIxGet                         0x08004ccd   Thumb Code   314  lib_mem.o(.text)
    Str_Len_N                                0x08004e0d   Thumb Code    28  lib_str.o(.text)
    Str_Len                                  0x08004e29   Thumb Code    20  lib_str.o(.text)
    Str_Copy_N                               0x08004e3d   Thumb Code    70  lib_str.o(.text)
    Str_Copy                                 0x08004e83   Thumb Code    24  lib_str.o(.text)
    Str_Cat_N                                0x08004e9b   Thumb Code    90  lib_str.o(.text)
    Str_Cat                                  0x08004ef5   Thumb Code    24  lib_str.o(.text)
    Str_Cmp_N                                0x08004f0d   Thumb Code   156  lib_str.o(.text)
    Str_Cmp                                  0x08004fa9   Thumb Code    24  lib_str.o(.text)
    Str_CmpIgnoreCase_N                      0x08004fc1   Thumb Code   264  lib_str.o(.text)
    Str_CmpIgnoreCase                        0x080050c9   Thumb Code    24  lib_str.o(.text)
    Str_Char_N                               0x080050e1   Thumb Code    74  lib_str.o(.text)
    Str_Char                                 0x0800512b   Thumb Code    24  lib_str.o(.text)
    Str_Char_Last_N                          0x08005143   Thumb Code    76  lib_str.o(.text)
    Str_Char_Last                            0x0800518f   Thumb Code    24  lib_str.o(.text)
    Str_Char_Replace_N                       0x080051a7   Thumb Code    52  lib_str.o(.text)
    Str_Char_Replace                         0x080051db   Thumb Code    28  lib_str.o(.text)
    Str_Str_N                                0x080051f7   Thumb Code   182  lib_str.o(.text)
    Str_Str                                  0x080052ad   Thumb Code    24  lib_str.o(.text)
    Str_FmtNbr_Int32U                        0x0800549f   Thumb Code    46  lib_str.o(.text)
    Str_FmtNbr_Int32S                        0x080054cd   Thumb Code    62  lib_str.o(.text)
    Str_ParseNbr_Int32U                      0x080056c9   Thumb Code    30  lib_str.o(.text)
    Str_ParseNbr_Int32S                      0x080056e7   Thumb Code    74  lib_str.o(.text)
    Mem_Copy                                 0x08005735   Thumb Code     0  lib_mem_a.o(.text)
    CPU_NameClr                              0x08005955   Thumb Code    42  cpu_core.o(.text)
    CPU_Init                                 0x08005995   Thumb Code    12  cpu_core.o(.text)
    CPU_SW_Exception                         0x080059a1   Thumb Code     4  cpu_core.o(.text)
    CPU_NameGet                              0x080059a5   Thumb Code    70  cpu_core.o(.text)
    CPU_NameSet                              0x080059eb   Thumb Code    96  cpu_core.o(.text)
    CPU_TS_Get32                             0x08005a4b   Thumb Code    12  cpu_core.o(.text)
    CPU_TS_Update                            0x08005a57   Thumb Code     2  cpu_core.o(.text)
    CPU_TS_TmrFreqGet                        0x08005a59   Thumb Code    30  cpu_core.o(.text)
    CPU_TS_TmrFreqSet                        0x08005a77   Thumb Code     6  cpu_core.o(.text)
    CPU_CntLeadZeros08                       0x08005a7d   Thumb Code    18  cpu_core.o(.text)
    CPU_CntLeadZeros16                       0x08005a8f   Thumb Code    18  cpu_core.o(.text)
    CPU_CntLeadZeros32                       0x08005aa1   Thumb Code    18  cpu_core.o(.text)
    CPU_CntLeadZeros64                       0x08005ab3   Thumb Code   188  cpu_core.o(.text)
    CPU_CntTrailZeros08                      0x08005b6f   Thumb Code    22  cpu_core.o(.text)
    CPU_CntTrailZeros16                      0x08005b85   Thumb Code    22  cpu_core.o(.text)
    CPU_CntTrailZeros32                      0x08005b9b   Thumb Code    22  cpu_core.o(.text)
    CPU_CntTrailZeros64                      0x08005bb1   Thumb Code    62  cpu_core.o(.text)
    CPU_IntDis                               0x08005bfd   Thumb Code     0  cpu_a.o(.text)
    CPU_IntEn                                0x08005c01   Thumb Code     0  cpu_a.o(.text)
    CPU_SR_Save                              0x08005c05   Thumb Code     0  cpu_a.o(.text)
    CPU_SR_Restore                           0x08005c0d   Thumb Code     0  cpu_a.o(.text)
    CPU_WaitForInt                           0x08005c13   Thumb Code     0  cpu_a.o(.text)
    CPU_WaitForExcept                        0x08005c17   Thumb Code     0  cpu_a.o(.text)
    CPU_CntLeadZeros                         0x08005c1b   Thumb Code     0  cpu_a.o(.text)
    CPU_CntTrailZeros                        0x08005c21   Thumb Code     0  cpu_a.o(.text)
    CPU_RevBits                              0x08005c2b   Thumb Code     0  cpu_a.o(.text)
    CPU_BitBandClr                           0x08005c31   Thumb Code    58  cpu_c.o(.text)
    CPU_BitBandSet                           0x08005c6b   Thumb Code    58  cpu_c.o(.text)
    CPU_IntSrcDis                            0x08005ca5   Thumb Code   328  cpu_c.o(.text)
    CPU_IntSrcEn                             0x08005ded   Thumb Code   328  cpu_c.o(.text)
    CPU_IntSrcPendClr                        0x08005f35   Thumb Code   164  cpu_c.o(.text)
    CPU_IntSrcPrioSet                        0x08005fd9   Thumb Code   522  cpu_c.o(.text)
    CPU_IntSrcPrioGet                        0x080061e3   Thumb Code   450  cpu_c.o(.text)
    OSIdleTaskHook                           0x080063ad   Thumb Code    16  os_cpu_c.o(.text)
    OSInitHook                               0x080063bd   Thumb Code    42  os_cpu_c.o(.text)
    OSStatTaskHook                           0x080063e7   Thumb Code    16  os_cpu_c.o(.text)
    OSTaskCreateHook                         0x080063f7   Thumb Code    20  os_cpu_c.o(.text)
    OSTaskDelHook                            0x0800640b   Thumb Code    20  os_cpu_c.o(.text)
    OSTaskReturnHook                         0x0800641f   Thumb Code    20  os_cpu_c.o(.text)
    OSTaskStkInit                            0x08006433   Thumb Code   188  os_cpu_c.o(.text)
    OSTaskSwHook                             0x080064ef   Thumb Code   120  os_cpu_c.o(.text)
    OSTimeTickHook                           0x08006567   Thumb Code    16  os_cpu_c.o(.text)
    OS_CPU_SysTickHandler                    0x08006577   Thumb Code    52  os_cpu_c.o(.text)
    OS_CPU_SysTickInit                       0x080065ab   Thumb Code    44  os_cpu_c.o(.text)
    OSCfg_Init                               0x08006619   Thumb Code     2  os_cfg_app.o(.text)
    OS_IdleTask                              0x0800661d   Thumb Code    60  os_core.o(.text)
    OS_IdleTaskInit                          0x08006659   Thumb Code    68  os_core.o(.text)
    OS_RdyListInit                           0x0800669d   Thumb Code    32  os_core.o(.text)
    OSInit                                   0x080066bd   Thumb Code   288  os_core.o(.text)
    OSIntEnter                               0x080067dd   Thumb Code    34  os_core.o(.text)
    OSIntExit                                0x080067ff   Thumb Code   192  os_core.o(.text)
    OSSched                                  0x080068bf   Thumb Code   134  os_core.o(.text)
    OS_SchedLockTimeMeasStart                0x08006945   Thumb Code    20  os_core.o(.text)
    OSSchedLock                              0x08006959   Thumb Code   104  os_core.o(.text)
    OS_SchedLockTimeMeasStop                 0x080069c1   Thumb Code    44  os_core.o(.text)
    OSSchedUnlock                            0x080069ed   Thumb Code   290  os_core.o(.text)
    OSSchedRoundRobinCfg                     0x08006b0f   Thumb Code    88  os_core.o(.text)
    OS_RdyListMoveHeadToTail                 0x08006b67   Thumb Code    68  os_core.o(.text)
    OSSchedRoundRobinYield                   0x08006bab   Thumb Code   164  os_core.o(.text)
    OSStart                                  0x08006c4f   Thumb Code    78  os_core.o(.text)
    OSVersion                                0x08006c9d   Thumb Code    12  os_core.o(.text)
    OS_PendDbgNameAdd                        0x08006ca9   Thumb Code    66  os_core.o(.text)
    OS_PendListInsertPrio                    0x08006ceb   Thumb Code   102  os_core.o(.text)
    OS_PendDataInit                          0x08006d51   Thumb Code    38  os_core.o(.text)
    OS_RdyListRemove                         0x08006d77   Thumb Code    86  os_core.o(.text)
    OS_TaskBlock                             0x08006dcd   Thumb Code    56  os_core.o(.text)
    OS_Pend                                  0x08006e05   Thumb Code    98  os_core.o(.text)
    OS_PendListRemove1                       0x08006e67   Thumb Code   136  os_core.o(.text)
    OS_PendListRemove                        0x08006eef   Thumb Code    48  os_core.o(.text)
    OS_PendAbort1                            0x08006f1f   Thumb Code    36  os_core.o(.text)
    OS_RdyListInsertHead                     0x08006f43   Thumb Code    58  os_core.o(.text)
    OS_RdyListInsertTail                     0x08006f7d   Thumb Code    56  os_core.o(.text)
    OS_RdyListInsert                         0x08006fb5   Thumb Code    40  os_core.o(.text)
    OS_TaskRdy                               0x08006fdd   Thumb Code    28  os_core.o(.text)
    OS_PendAbort                             0x08006ff9   Thumb Code   166  os_core.o(.text)
    OS_PendDbgNameRemove                     0x0800709f   Thumb Code    34  os_core.o(.text)
    OS_PendListChangePrio                    0x080070c1   Thumb Code    70  os_core.o(.text)
    OS_PendListInit                          0x08007107   Thumb Code    10  os_core.o(.text)
    OS_PendListInsertHead                    0x08007111   Thumb Code    32  os_core.o(.text)
    OS_PendObjDel1                           0x08007131   Thumb Code    36  os_core.o(.text)
    OS_PendObjDel                            0x08007155   Thumb Code   162  os_core.o(.text)
    OS_Post1                                 0x080071f7   Thumb Code    42  os_core.o(.text)
    OS_Post                                  0x08007221   Thumb Code   192  os_core.o(.text)
    OS_SchedRoundRobin                       0x080072e1   Thumb Code   208  os_core.o(.text)
    OS_Dbg_Init                              0x080073b9   Thumb Code   148  os_dbg.o(.text)
    OS_FlagDbgListAdd                        0x08007565   Thumb Code    38  os_flag.o(.text)
    OSFlagCreate                             0x0800758b   Thumb Code   116  os_flag.o(.text)
    OS_FlagBlock                             0x080075ff   Thumb Code    58  os_flag.o(.text)
    OSFlagPend                               0x08007639   Thumb Code   902  os_flag.o(.text)
    OSFlagPendGetFlagsRdy                    0x080079bf   Thumb Code    68  os_flag.o(.text)
    OS_FlagTaskRdy                           0x08007a03   Thumb Code    86  os_flag.o(.text)
    OS_FlagPost                              0x08007a59   Thumb Code   350  os_flag.o(.text)
    OSFlagPost                               0x08007bb7   Thumb Code   112  os_flag.o(.text)
    OS_FlagClr                               0x08007c27   Thumb Code    28  os_flag.o(.text)
    OS_FlagInit                              0x08007c43   Thumb Code    14  os_flag.o(.text)
    OS_FlagDbgListRemove                     0x08007c51   Thumb Code    44  os_flag.o(.text)
    OS_MemDbgListAdd                         0x08007c9d   Thumb Code    34  os_mem.o(.text)
    OSMemCreate                              0x08007cbf   Thumb Code   232  os_mem.o(.text)
    OSMemGet                                 0x08007da7   Thumb Code   100  os_mem.o(.text)
    OSMemPut                                 0x08007e0b   Thumb Code   112  os_mem.o(.text)
    OS_MemInit                               0x08007e7b   Thumb Code    14  os_mem.o(.text)
    OS_MsgPoolInit                           0x08007e99   Thumb Code   110  os_msg.o(.text)
    OS_MsgQFreeAll                           0x08007f07   Thumb Code    62  os_msg.o(.text)
    OS_MsgQInit                              0x08007f45   Thumb Code    14  os_msg.o(.text)
    OS_MsgQGet                               0x08007f53   Thumb Code    98  os_msg.o(.text)
    OS_MsgQPut                               0x08007fb5   Thumb Code   254  os_msg.o(.text)
    OS_MutexDbgListAdd                       0x080080c1   Thumb Code    38  os_mutex.o(.text)
    OSMutexCreate                            0x080080e7   Thumb Code   122  os_mutex.o(.text)
    OSMutexPend                              0x08008161   Thumb Code   574  os_mutex.o(.text)
    OSMutexPost                              0x0800839f   Thumb Code   388  os_mutex.o(.text)
    OS_MutexClr                              0x08008523   Thumb Code    38  os_mutex.o(.text)
    OS_MutexDbgListRemove                    0x08008549   Thumb Code    44  os_mutex.o(.text)
    OS_MutexInit                             0x08008575   Thumb Code    14  os_mutex.o(.text)
    OS_PrioInit                              0x08008599   Thumb Code    20  os_prio.o(.text)
    OS_PrioGetHighest                        0x080085ad   Thumb Code    36  os_prio.o(.text)
    OS_PrioInsert                            0x080085d1   Thumb Code    32  os_prio.o(.text)
    OS_PrioRemove                            0x080085f1   Thumb Code    32  os_prio.o(.text)
    OS_QDbgListAdd                           0x08008615   Thumb Code    38  os_q.o(.text)
    OSQCreate                                0x0800863b   Thumb Code   130  os_q.o(.text)
    OSQPend                                  0x080086bd   Thumb Code   446  os_q.o(.text)
    OSQPendAbort                             0x0800887b   Thumb Code   236  os_q.o(.text)
    OS_QPost                                 0x08008967   Thumb Code   220  os_q.o(.text)
    OSQPost                                  0x08008a43   Thumb Code   144  os_q.o(.text)
    OS_QClr                                  0x08008ad3   Thumb Code    40  os_q.o(.text)
    OS_QDbgListRemove                        0x08008afb   Thumb Code    44  os_q.o(.text)
    OS_QInit                                 0x08008b27   Thumb Code    14  os_q.o(.text)
    OS_SemDbgListAdd                         0x08008b49   Thumb Code    38  os_sem.o(.text)
    OSSemCreate                              0x08008b6f   Thumb Code   116  os_sem.o(.text)
    OSSemPend                                0x08008be3   Thumb Code   406  os_sem.o(.text)
    OSSemPendAbort                           0x08008d79   Thumb Code   236  os_sem.o(.text)
    OS_SemPost                               0x08008e65   Thumb Code   322  os_sem.o(.text)
    OSSemPost                                0x08008fa7   Thumb Code   108  os_sem.o(.text)
    OSSemSet                                 0x08009013   Thumb Code   120  os_sem.o(.text)
    OS_SemClr                                0x0800908b   Thumb Code    28  os_sem.o(.text)
    OS_SemDbgListRemove                      0x080090a7   Thumb Code    44  os_sem.o(.text)
    OS_SemInit                               0x080090d3   Thumb Code    14  os_sem.o(.text)
    OSStatReset                              0x080090fd   Thumb Code   262  os_stat.o(.text)
    OSStatTaskCPUUsageInit                   0x08009203   Thumb Code   212  os_stat.o(.text)
    OS_StatTask                              0x080092d7   Thumb Code   768  os_stat.o(.text)
    OS_StatTaskInit                          0x080095d7   Thumb Code   138  os_stat.o(.text)
    OSTaskChangePrio                         0x080096a5   Thumb Code   274  os_task.o(.text)
    OS_TaskDbgListAdd                        0x080097b7   Thumb Code    42  os_task.o(.text)
    OS_TaskInitTCB                           0x080097e1   Thumb Code   190  os_task.o(.text)
    OSTaskCreate                             0x0800989f   Thumb Code   412  os_task.o(.text)
    OSTaskQFlush                             0x08009a3b   Thumb Code   154  os_task.o(.text)
    OSTaskQPend                              0x08009ad5   Thumb Code   458  os_task.o(.text)
    OS_TaskQPost                             0x08009c9f   Thumb Code   220  os_task.o(.text)
    OSTaskQPost                              0x08009d7b   Thumb Code    82  os_task.o(.text)
    OSTaskRegGet                             0x08009dcd   Thumb Code    78  os_task.o(.text)
    OSTaskRegGetID                           0x08009e1b   Thumb Code    84  os_task.o(.text)
    OSTaskRegSet                             0x08009e6f   Thumb Code    78  os_task.o(.text)
    OS_TaskResume                            0x08009ebd   Thumb Code   274  os_task.o(.text)
    OSTaskResume                             0x08009fcf   Thumb Code    96  os_task.o(.text)
    OSTaskSemPend                            0x0800a02f   Thumb Code   464  os_task.o(.text)
    OSTaskSemPendAbort                       0x0800a1ff   Thumb Code   214  os_task.o(.text)
    OS_TaskSemPost                           0x0800a2d5   Thumb Code   462  os_task.o(.text)
    OSTaskSemPost                            0x0800a4a3   Thumb Code    62  os_task.o(.text)
    OSTaskSemSet                             0x0800a4e1   Thumb Code    80  os_task.o(.text)
    OSTaskStkChk                             0x0800a531   Thumb Code   204  os_task.o(.text)
    OS_TaskSuspend                           0x0800a5fd   Thumb Code   272  os_task.o(.text)
    OSTaskSuspend                            0x0800a70d   Thumb Code    48  os_task.o(.text)
    OSTaskTimeQuantaSet                      0x0800a73d   Thumb Code    96  os_task.o(.text)
    OS_TaskDbgListRemove                     0x0800a79d   Thumb Code    64  os_task.o(.text)
    OS_TaskInit                              0x0800a7dd   Thumb Code    18  os_task.o(.text)
    OS_TaskReturn                            0x0800a7ef   Thumb Code    26  os_task.o(.text)
    OS_TickListRemove                        0x0800a82d   Thumb Code    56  os_tick.o(.text)
    OS_TickListUpdate                        0x0800a865   Thumb Code   376  os_tick.o(.text)
    OS_TickTask                              0x0800a9dd   Thumb Code    38  os_tick.o(.text)
    OS_TickListInit                          0x0800aa03   Thumb Code    32  os_tick.o(.text)
    OS_TickTaskInit                          0x0800aa23   Thumb Code   130  os_tick.o(.text)
    OS_TickListInsert                        0x0800aaa5   Thumb Code   430  os_tick.o(.text)
    OS_TickListResetPeak                     0x0800ac53   Thumb Code    94  os_tick.o(.text)
    OSTimeDly                                0x0800acb1   Thumb Code   182  os_time.o(.text)
    OSTimeDlyHMSM                            0x0800ad67   Thumb Code   394  os_time.o(.text)
    OSTimeGet                                0x0800aef1   Thumb Code    46  os_time.o(.text)
    OSTimeSet                                0x0800af1f   Thumb Code    46  os_time.o(.text)
    OSTimeTick                               0x0800af4d   Thumb Code    68  os_time.o(.text)
    OS_TmrDbgListAdd                         0x0800afbd   Thumb Code    34  os_tmr.o(.text)
    OSTmrCreate                              0x0800afdf   Thumb Code   192  os_tmr.o(.text)
    OSTmrRemainGet                           0x0800b09f   Thumb Code   188  os_tmr.o(.text)
    OS_TmrLink                               0x0800b15b   Thumb Code   196  os_tmr.o(.text)
    OS_TmrUnlink                             0x0800b21f   Thumb Code    72  os_tmr.o(.text)
    OSTmrStart                               0x0800b267   Thumb Code   170  os_tmr.o(.text)
    OSTmrStateGet                            0x0800b311   Thumb Code   134  os_tmr.o(.text)
    OSTmrStop                                0x0800b397   Thumb Code   276  os_tmr.o(.text)
    OS_TmrClr                                0x0800b4ab   Thumb Code    36  os_tmr.o(.text)
    OS_TmrDbgListRemove                      0x0800b4cf   Thumb Code    44  os_tmr.o(.text)
    OS_TmrTask                               0x0800b4fb   Thumb Code   176  os_tmr.o(.text)
    OS_TmrInit                               0x0800b5ab   Thumb Code   208  os_tmr.o(.text)
    OS_TmrResetPeak                          0x0800b67b   Thumb Code    28  os_tmr.o(.text)
    disk_initialize                          0x0800b6fd   Thumb Code    32  diskio.o(.text)
    disk_status                              0x0800b71d   Thumb Code    14  diskio.o(.text)
    disk_read                                0x0800b72b   Thumb Code    70  diskio.o(.text)
    disk_write                               0x0800b771   Thumb Code    86  diskio.o(.text)
    disk_ioctl                               0x0800b7c7   Thumb Code     6  diskio.o(.text)
    get_fattime                              0x0800b7cd   Thumb Code     6  diskio.o(.text)
    clust2sect                               0x0800b97d   Thumb Code    26  ff.o(.text)
    get_fat                                  0x0800b997   Thumb Code   228  ff.o(.text)
    put_fat                                  0x0800ba7b   Thumb Code   310  ff.o(.text)
    gen_numname                              0x0800c00b   Thumb Code   168  ff.o(.text)
    f_mount                                  0x0800cc8d   Thumb Code    38  ff.o(.text)
    f_open                                   0x0800ccb3   Thumb Code   384  ff.o(.text)
    f_read                                   0x0800ce33   Thumb Code   460  ff.o(.text)
    f_write                                  0x0800cfff   Thumb Code   526  ff.o(.text)
    f_sync                                   0x0800d20d   Thumb Code   184  ff.o(.text)
    f_close                                  0x0800d2c5   Thumb Code    22  ff.o(.text)
    f_lseek                                  0x0800d2db   Thumb Code   432  ff.o(.text)
    f_opendir                                0x0800d48b   Thumb Code   114  ff.o(.text)
    f_readdir                                0x0800d4fd   Thumb Code    96  ff.o(.text)
    f_stat                                   0x0800d55d   Thumb Code    62  ff.o(.text)
    f_getfree                                0x0800d59b   Thumb Code   276  ff.o(.text)
    f_truncate                               0x0800d6af   Thumb Code   156  ff.o(.text)
    f_unlink                                 0x0800d74b   Thumb Code   182  ff.o(.text)
    f_mkdir                                  0x0800d801   Thumb Code   388  ff.o(.text)
    f_chmod                                  0x0800d985   Thumb Code    88  ff.o(.text)
    f_utime                                  0x0800d9dd   Thumb Code    90  ff.o(.text)
    f_rename                                 0x0800da37   Thumb Code   294  ff.o(.text)
    ff_convert                               0x0800db5d   Thumb Code    70  ccsbcs.o(.text)
    ff_wtoupper                              0x0800dba3   Thumb Code    46  ccsbcs.o(.text)
    SystemInit                               0x0800dc9d   Thumb Code    74  system_stm32f2xx.o(.text)
    SystemCoreClockUpdate                    0x0800dce7   Thumb Code   174  system_stm32f2xx.o(.text)
    MP3InitDecoder                           0x0800ddbd   Thumb Code    12  mp3dec.o(.text)
    MP3FreeDecoder                           0x0800ddc9   Thumb Code    20  mp3dec.o(.text)
    MP3FindSyncWord                          0x0800dddd   Thumb Code    44  mp3dec.o(.text)
    MP3GetLastFrameInfo                      0x0800de6d   Thumb Code    94  mp3dec.o(.text)
    MP3GetNextFrameInfo                      0x0800decb   Thumb Code    60  mp3dec.o(.text)
    MP3Decode                                0x0800df31   Thumb Code   804  mp3dec.o(.text)
    xmp3_SetBitstreamPointer                 0x0800e259   Thumb Code    12  bitstream.o(.text)
    xmp3_GetBits                             0x0800e2ed   Thumb Code    80  bitstream.o(.text)
    xmp3_CalcBitsUsed                        0x0800e33d   Thumb Code    18  bitstream.o(.text)
    xmp3_CheckPadBit                         0x0800e34f   Thumb Code    28  bitstream.o(.text)
    xmp3_UnpackFrameHeader                   0x0800e36b   Thumb Code   474  bitstream.o(.text)
    xmp3_UnpackSideInfo                      0x0800e545   Thumb Code   556  bitstream.o(.text)
    ClearBuffer                              0x0800e789   Thumb Code    22  buffers.o(.text)
    xmp3_AllocateBuffers                     0x0800e79f   Thumb Code   116  buffers.o(.text)
    xmp3_FreeBuffers                         0x0800e813   Thumb Code     2  buffers.o(.text)
    xmp3_FDCT32                              0x0800e835   Thumb Code  3372  dct32.o(.text)
    xmp3_Dequantize                          0x0800f57d   Thumb Code   640  dequant.o(.text)
    xmp3_DequantChannel                      0x0800f9b1   Thumb Code   670  dqchan.o(.text)
    xmp3_DecodeHuffman                       0x0801013f   Thumb Code   548  huffman.o(.text)
    xmp3_IMDCT                               0x0801119f   Thumb Code   522  imdct.o(.text)
    xmp3_UnpackScaleFactors                  0x08011835   Thumb Code   296  scalfact.o(.text)
    xmp3_MidSideProc                         0x0801195d   Thumb Code   106  stproc.o(.text)
    xmp3_IntensityProcMPEG1                  0x080119c7   Thumb Code   744  stproc.o(.text)
    xmp3_IntensityProcMPEG2                  0x08011caf   Thumb Code   718  stproc.o(.text)
    xmp3_Subband                             0x08011f81   Thumb Code   276  subband.o(.text)
    xmp3_MULSHIFT32                          0x08012099   Thumb Code     6  asmmisc.o(.text)
    xmp3_FASTABS                             0x0801209f   Thumb Code    16  asmmisc.o(.text)
    xmp3_PolyphaseStereo                     0x080120b1   Thumb Code  1308  asmpoly_thumb2.o(.text)
    xmp3_PolyphaseMono                       0x080125cd   Thumb Code   754  asmpoly_thumb2.o(.text)
    __c89vsnprintf                           0x080128c1   Thumb Code    48  c89vsnprintf.o(.text)
    _printf_int_dec                          0x080128f5   Thumb Code   104  _printf_dec.o(.text)
    __printf                                 0x0801296d   Thumb Code   388  __printf_flags_ss_wp.o(.text)
    strcpy                                   0x08012af5   Thumb Code    72  strcpy.o(.text)
    strcat                                   0x08012b3d   Thumb Code    24  strcat.o(.text)
    __aeabi_memcpy                           0x08012b55   Thumb Code     0  rt_memcpy_v6.o(.text)
    __rt_memcpy                              0x08012b55   Thumb Code   138  rt_memcpy_v6.o(.text)
    _memcpy_lastbytes                        0x08012bbb   Thumb Code     0  rt_memcpy_v6.o(.text)
    __aeabi_memmove                          0x08012bdf   Thumb Code     0  rt_memmove_v6.o(.text)
    __rt_memmove                             0x08012bdf   Thumb Code   132  rt_memmove_v6.o(.text)
    __memmove_lastfew                        0x08012c3f   Thumb Code     0  rt_memmove_v6.o(.text)
    __use_two_region_memory                  0x08012c63   Thumb Code     2  heapauxi.o(.text)
    __rt_heap_escrow                         0x08012c65   Thumb Code     2  heapauxi.o(.text)
    __rt_heap_expand                         0x08012c67   Thumb Code     2  heapauxi.o(.text)
    _printf_pre_padding                      0x08012c69   Thumb Code    44  _printf_pad.o(.text)
    _printf_post_padding                     0x08012c95   Thumb Code    34  _printf_pad.o(.text)
    _printf_truncate_signed                  0x08012cb7   Thumb Code    18  _printf_truncate.o(.text)
    _printf_truncate_unsigned                0x08012cc9   Thumb Code    18  _printf_truncate.o(.text)
    _printf_str                              0x08012cdb   Thumb Code    82  _printf_str.o(.text)
    _printf_int_common                       0x08012d2d   Thumb Code   178  _printf_intcommon.o(.text)
    _printf_charcount                        0x08012ddf   Thumb Code    40  _printf_charcount.o(.text)
    _printf_char_common                      0x08012e13   Thumb Code    32  _printf_char_common.o(.text)
    _sputc                                   0x08012e39   Thumb Code    10  _sputc.o(.text)
    _snputc                                  0x08012e43   Thumb Code    16  _snputc.o(.text)
    _printf_wctomb                           0x08012e55   Thumb Code   182  _printf_wctomb.o(.text)
    _printf_longlong_dec                     0x08012f11   Thumb Code   108  _printf_longlong_dec.o(.text)
    _printf_longlong_oct                     0x08012f8d   Thumb Code    68  _printf_oct_int_ll.o(.text)
    _printf_int_oct                          0x08012fd1   Thumb Code    24  _printf_oct_int_ll.o(.text)
    _printf_ll_oct                           0x08012fe9   Thumb Code    12  _printf_oct_int_ll.o(.text)
    _printf_longlong_hex                     0x08012ffd   Thumb Code    86  _printf_hex_int_ll_ptr.o(.text)
    _printf_int_hex                          0x08013053   Thumb Code    28  _printf_hex_int_ll_ptr.o(.text)
    _printf_ll_hex                           0x0801306f   Thumb Code    12  _printf_hex_int_ll_ptr.o(.text)
    _printf_hex_ptr                          0x0801307b   Thumb Code    18  _printf_hex_int_ll_ptr.o(.text)
    __aeabi_memcpy4                          0x08013091   Thumb Code     0  rt_memcpy_w.o(.text)
    __aeabi_memcpy8                          0x08013091   Thumb Code     0  rt_memcpy_w.o(.text)
    __rt_memcpy_w                            0x08013091   Thumb Code   100  rt_memcpy_w.o(.text)
    _memcpy_lastbytes_aligned                0x080130d9   Thumb Code     0  rt_memcpy_w.o(.text)
    __aeabi_memmove4                         0x080130f5   Thumb Code     0  rt_memmove_w.o(.text)
    __aeabi_memmove8                         0x080130f5   Thumb Code     0  rt_memmove_w.o(.text)
    __rt_memmove_w                           0x080130f5   Thumb Code   122  rt_memmove_w.o(.text)
    __memmove_aligned                        0x0801311b   Thumb Code     0  rt_memmove_w.o(.text)
    __memmove_lastfew_aligned                0x08013153   Thumb Code     0  rt_memmove_w.o(.text)
    _ll_udiv10                               0x0801316f   Thumb Code   138  lludiv10.o(.text)
    __lib_sel_fp_printf                      0x080131f9   Thumb Code     2  _printf_fp_dec.o(.text)
    _printf_fp_dec_real                      0x080133a7   Thumb Code   620  _printf_fp_dec.o(.text)
    _printf_cs_common                        0x08013613   Thumb Code    20  _printf_char.o(.text)
    _printf_char                             0x08013627   Thumb Code    16  _printf_char.o(.text)
    _printf_string                           0x08013637   Thumb Code     8  _printf_char.o(.text)
    _printf_lcs_common                       0x0801363f   Thumb Code    20  _printf_wchar.o(.text)
    _printf_wchar                            0x08013653   Thumb Code    16  _printf_wchar.o(.text)
    _printf_wstring                          0x08013663   Thumb Code     8  _printf_wchar.o(.text)
    _wcrtomb                                 0x0801366b   Thumb Code    64  _wcrtomb.o(.text)
    __user_setup_stackheap                   0x080136ab   Thumb Code    74  sys_stackheap_outer.o(.text)
    __rt_ctype_table                         0x080136f5   Thumb Code    16  rt_ctype_table.o(.text)
    __rt_locale                              0x08013705   Thumb Code     8  rt_locale_intlibspace.o(.text)
    _printf_fp_infnan                        0x0801370d   Thumb Code   112  _printf_fp_infnan.o(.text)
    _btod_etento                             0x0801378d   Thumb Code   216  bigflt0.o(.text)
    exit                                     0x08013869   Thumb Code    12  exit.o(.text)
    __user_libspace                          0x08013875   Thumb Code     8  libspace.o(.text)
    __user_perproc_libspace                  0x08013875   Thumb Code     0  libspace.o(.text)
    __user_perthread_libspace                0x08013875   Thumb Code     0  libspace.o(.text)
    __I$use$semihosting                      0x0801387d   Thumb Code     0  use_no_semi.o(.text)
    __use_no_semihosting_swi                 0x0801387d   Thumb Code     2  use_no_semi.o(.text)
    __semihosting_library_function           0x0801387f   Thumb Code     0  indicate_semi.o(.text)
    strcmp                                   0x08013881   Thumb Code   128  strcmpv7m.o(.text)
    _sys_exit                                0x08013901   Thumb Code     8  sys_exit.o(.text)
    _btod_d2e                                0x0801390d   Thumb Code    62  btod.o(CL$$btod_d2e)
    _d2e_denorm_low                          0x0801394b   Thumb Code    70  btod.o(CL$$btod_d2e_denorm_low)
    _d2e_norm_op1                            0x08013991   Thumb Code    96  btod.o(CL$$btod_d2e_norm_op1)
    __btod_div_common                        0x080139f1   Thumb Code   696  btod.o(CL$$btod_div_common)
    _e2e                                     0x08013d29   Thumb Code   198  btod.o(CL$$btod_e2e)
    _btod_ediv                               0x08013def   Thumb Code    40  btod.o(CL$$btod_ediv)
    _btod_emul                               0x08013e17   Thumb Code    40  btod.o(CL$$btod_emul)
    __btod_mult_common                       0x08013e3f   Thumb Code   580  btod.o(CL$$btod_mult_common)
    OSStartHighRdy                           0x08014085   Thumb Code     0  os_cpu_a.o(CODE)
    OS_CPU_PendSVHandler                     0x080140a7   Thumb Code     0  os_cpu_a.o(CODE)
    __ARM_fpclassify                         0x08014109   Thumb Code    40  fpclassify.o(i.__ARM_fpclassify)
    _is_digit                                0x08014131   Thumb Code    14  __printf_wp.o(i._is_digit)
    _get_lc_numeric                          0x08014141   Thumb Code    44  lc_numeric_c.o(locale$$code)
    _get_lc_ctype                            0x0801416d   Thumb Code    44  lc_ctype_c.o(locale$$code)
    _printf_fp_dec                           0x08014199   Thumb Code     4  printf1.o(x$fpl$printf1)
    __I$use$fp                               0x0801419c   Number         0  usenofp.o(x$fpl$usenofp)
    OSCfg_IdleTaskStkBasePtr                 0x08014330   Data           4  os_cfg_app.o(.constdata)
    OSCfg_IdleTaskStkLimit                   0x08014334   Data           4  os_cfg_app.o(.constdata)
    OSCfg_IdleTaskStkSize                    0x08014338   Data           4  os_cfg_app.o(.constdata)
    OSCfg_IdleTaskStkSizeRAM                 0x0801433c   Data           4  os_cfg_app.o(.constdata)
    OSCfg_IntQBasePtr                        0x08014340   Data           4  os_cfg_app.o(.constdata)
    OSCfg_IntQSize                           0x08014344   Data           2  os_cfg_app.o(.constdata)
    OSCfg_IntQSizeRAM                        0x08014348   Data           4  os_cfg_app.o(.constdata)
    OSCfg_IntQTaskStkBasePtr                 0x0801434c   Data           4  os_cfg_app.o(.constdata)
    OSCfg_IntQTaskStkLimit                   0x08014350   Data           4  os_cfg_app.o(.constdata)
    OSCfg_IntQTaskStkSize                    0x08014354   Data           4  os_cfg_app.o(.constdata)
    OSCfg_IntQTaskStkSizeRAM                 0x08014358   Data           4  os_cfg_app.o(.constdata)
    OSCfg_ISRStkBasePtr                      0x0801435c   Data           4  os_cfg_app.o(.constdata)
    OSCfg_ISRStkSize                         0x08014360   Data           4  os_cfg_app.o(.constdata)
    OSCfg_ISRStkSizeRAM                      0x08014364   Data           4  os_cfg_app.o(.constdata)
    OSCfg_MsgPoolSize                        0x08014368   Data           2  os_cfg_app.o(.constdata)
    OSCfg_MsgPoolSizeRAM                     0x0801436c   Data           4  os_cfg_app.o(.constdata)
    OSCfg_MsgPoolBasePtr                     0x08014370   Data           4  os_cfg_app.o(.constdata)
    OSCfg_StatTaskPrio                       0x08014374   Data           1  os_cfg_app.o(.constdata)
    OSCfg_StatTaskRate_Hz                    0x08014378   Data           4  os_cfg_app.o(.constdata)
    OSCfg_StatTaskStkBasePtr                 0x0801437c   Data           4  os_cfg_app.o(.constdata)
    OSCfg_StatTaskStkLimit                   0x08014380   Data           4  os_cfg_app.o(.constdata)
    OSCfg_StatTaskStkSize                    0x08014384   Data           4  os_cfg_app.o(.constdata)
    OSCfg_StatTaskStkSizeRAM                 0x08014388   Data           4  os_cfg_app.o(.constdata)
    OSCfg_StkSizeMin                         0x0801438c   Data           4  os_cfg_app.o(.constdata)
    OSCfg_TickRate_Hz                        0x08014390   Data           4  os_cfg_app.o(.constdata)
    OSCfg_TickTaskPrio                       0x08014394   Data           1  os_cfg_app.o(.constdata)
    OSCfg_TickTaskStkBasePtr                 0x08014398   Data           4  os_cfg_app.o(.constdata)
    OSCfg_TickTaskStkLimit                   0x0801439c   Data           4  os_cfg_app.o(.constdata)
    OSCfg_TickTaskStkSize                    0x080143a0   Data           4  os_cfg_app.o(.constdata)
    OSCfg_TickTaskStkSizeRAM                 0x080143a4   Data           4  os_cfg_app.o(.constdata)
    OSCfg_TickWheelSize                      0x080143a8   Data           2  os_cfg_app.o(.constdata)
    OSCfg_TickWheelSizeRAM                   0x080143ac   Data           4  os_cfg_app.o(.constdata)
    OSCfg_TmrTaskPrio                        0x080143b0   Data           1  os_cfg_app.o(.constdata)
    OSCfg_TmrTaskRate_Hz                     0x080143b4   Data           4  os_cfg_app.o(.constdata)
    OSCfg_TmrTaskStkBasePtr                  0x080143b8   Data           4  os_cfg_app.o(.constdata)
    OSCfg_TmrTaskStkLimit                    0x080143bc   Data           4  os_cfg_app.o(.constdata)
    OSCfg_TmrTaskStkSize                     0x080143c0   Data           4  os_cfg_app.o(.constdata)
    OSCfg_TmrTaskStkSizeRAM                  0x080143c4   Data           4  os_cfg_app.o(.constdata)
    OSCfg_TmrWheelSize                       0x080143c8   Data           2  os_cfg_app.o(.constdata)
    OSCfg_TmrWheelSizeRAM                    0x080143cc   Data           4  os_cfg_app.o(.constdata)
    OSCfg_DataSizeRAM                        0x080143d0   Data           4  os_cfg_app.o(.constdata)
    OSDbg_DbgEn                              0x080143d4   Data           1  os_dbg.o(.constdata)
    OSDbg_ArgChkEn                           0x080143d5   Data           1  os_dbg.o(.constdata)
    OSDbg_AppHooksEn                         0x080143d6   Data           1  os_dbg.o(.constdata)
    OSDbg_EndiannessTest                     0x080143d8   Data           4  os_dbg.o(.constdata)
    OSDbg_CalledFromISRChkEn                 0x080143dc   Data           1  os_dbg.o(.constdata)
    OSDbg_FlagEn                             0x080143dd   Data           1  os_dbg.o(.constdata)
    OSDbg_FlagGrp                            0x080143e0   Data          40  os_dbg.o(.constdata)
    OSDbg_FlagDelEn                          0x08014408   Data           1  os_dbg.o(.constdata)
    OSDbg_FlagModeClrEn                      0x08014409   Data           1  os_dbg.o(.constdata)
    OSDbg_FlagPendAbortEn                    0x0801440a   Data           1  os_dbg.o(.constdata)
    OSDbg_FlagGrpSize                        0x0801440c   Data           2  os_dbg.o(.constdata)
    OSDbg_FlagWidth                          0x0801440e   Data           2  os_dbg.o(.constdata)
    OSDbg_IntQ                               0x08014410   Data           2  os_dbg.o(.constdata)
    OSDbg_ISRPostDeferredEn                  0x08014412   Data           1  os_dbg.o(.constdata)
    OSDbg_Mem                                0x08014414   Data          32  os_dbg.o(.constdata)
    OSDbg_MemEn                              0x08014434   Data           1  os_dbg.o(.constdata)
    OSDbg_MemSize                            0x08014436   Data           2  os_dbg.o(.constdata)
    OSDbg_MsgEn                              0x08014438   Data           1  os_dbg.o(.constdata)
    OSDbg_MsgSize                            0x0801443a   Data           2  os_dbg.o(.constdata)
    OSDbg_MsgPoolSize                        0x0801443c   Data           2  os_dbg.o(.constdata)
    OSDbg_MsgQSize                           0x0801443e   Data           2  os_dbg.o(.constdata)
    OSDbg_Mutex                              0x08014440   Data          44  os_dbg.o(.constdata)
    OSDbg_MutexEn                            0x0801446c   Data           1  os_dbg.o(.constdata)
    OSDbg_MutexDelEn                         0x0801446d   Data           1  os_dbg.o(.constdata)
    OSDbg_MutexPendAbortEn                   0x0801446e   Data           1  os_dbg.o(.constdata)
    OSDbg_MutexSize                          0x08014470   Data           2  os_dbg.o(.constdata)
    OSDbg_ObjTypeChkEn                       0x08014472   Data           1  os_dbg.o(.constdata)
    OSDbg_PendMultiEn                        0x08014473   Data           1  os_dbg.o(.constdata)
    OSDbg_PendDataSize                       0x08014474   Data           2  os_dbg.o(.constdata)
    OSDbg_PendListSize                       0x08014476   Data           2  os_dbg.o(.constdata)
    OSDbg_PendObjSize                        0x08014478   Data           2  os_dbg.o(.constdata)
    OSDbg_PrioMax                            0x0801447a   Data           2  os_dbg.o(.constdata)
    OSDbg_PrioTblSize                        0x0801447c   Data           2  os_dbg.o(.constdata)
    OSDbg_PtrSize                            0x0801447e   Data           2  os_dbg.o(.constdata)
    OSDbg_Q                                  0x08014480   Data          48  os_dbg.o(.constdata)
    OSDbg_QEn                                0x080144b0   Data           1  os_dbg.o(.constdata)
    OSDbg_QDelEn                             0x080144b1   Data           1  os_dbg.o(.constdata)
    OSDbg_QFlushEn                           0x080144b2   Data           1  os_dbg.o(.constdata)
    OSDbg_QPendAbortEn                       0x080144b3   Data           1  os_dbg.o(.constdata)
    OSDbg_QSize                              0x080144b4   Data           2  os_dbg.o(.constdata)
    OSDbg_SchedRoundRobinEn                  0x080144b6   Data           1  os_dbg.o(.constdata)
    OSDbg_Sem                                0x080144b8   Data          40  os_dbg.o(.constdata)
    OSDbg_SemEn                              0x080144e0   Data           1  os_dbg.o(.constdata)
    OSDbg_SemDelEn                           0x080144e1   Data           1  os_dbg.o(.constdata)
    OSDbg_SemPendAbortEn                     0x080144e2   Data           1  os_dbg.o(.constdata)
    OSDbg_SemSetEn                           0x080144e3   Data           1  os_dbg.o(.constdata)
    OSDbg_SemSize                            0x080144e4   Data           2  os_dbg.o(.constdata)
    OSDbg_RdyList                            0x080144e6   Data           2  os_dbg.o(.constdata)
    OSDbg_RdyListSize                        0x080144e8   Data           4  os_dbg.o(.constdata)
    OSDbg_StkWidth                           0x080144ec   Data           1  os_dbg.o(.constdata)
    OSDbg_StatTaskEn                         0x080144ed   Data           1  os_dbg.o(.constdata)
    OSDbg_StatTaskStkChkEn                   0x080144ee   Data           1  os_dbg.o(.constdata)
    OSDbg_TaskChangePrioEn                   0x080144ef   Data           1  os_dbg.o(.constdata)
    OSDbg_TaskDelEn                          0x080144f0   Data           1  os_dbg.o(.constdata)
    OSDbg_TaskQEn                            0x080144f1   Data           1  os_dbg.o(.constdata)
    OSDbg_TaskQPendAbortEn                   0x080144f2   Data           1  os_dbg.o(.constdata)
    OSDbg_TaskProfileEn                      0x080144f3   Data           1  os_dbg.o(.constdata)
    OSDbg_TaskRegTblSize                     0x080144f4   Data           2  os_dbg.o(.constdata)
    OSDbg_TaskSemPendAbortEn                 0x080144f6   Data           1  os_dbg.o(.constdata)
    OSDbg_TaskSuspendEn                      0x080144f7   Data           1  os_dbg.o(.constdata)
    OSDbg_TCBSize                            0x080144f8   Data           2  os_dbg.o(.constdata)
    OSDbg_TickSpokeSize                      0x080144fa   Data           2  os_dbg.o(.constdata)
    OSDbg_TimeDlyHMSMEn                      0x080144fc   Data           1  os_dbg.o(.constdata)
    OSDbg_TimeDlyResumeEn                    0x080144fd   Data           1  os_dbg.o(.constdata)
    OSDbg_TLS_TblSize                        0x080144fe   Data           2  os_dbg.o(.constdata)
    OSDbg_Tmr                                0x08014500   Data          52  os_dbg.o(.constdata)
    OSDbg_TmrEn                              0x08014534   Data           1  os_dbg.o(.constdata)
    OSDbg_TmrDelEn                           0x08014535   Data           1  os_dbg.o(.constdata)
    OSDbg_TmrSize                            0x08014536   Data           2  os_dbg.o(.constdata)
    OSDbg_TmrSpokeSize                       0x08014538   Data           2  os_dbg.o(.constdata)
    OSDbg_VersionNbr                         0x0801453a   Data           2  os_dbg.o(.constdata)
    OSDbg_DataSize                           0x0801453c   Data           4  os_dbg.o(.constdata)
    xmp3_samplerateTab                       0x08014a90   Data          36  mp3tabs.o(.constdata)
    xmp3_bitrateTab                          0x08014ab4   Data         270  mp3tabs.o(.constdata)
    xmp3_samplesPerFrameTab                  0x08014bc2   Data          18  mp3tabs.o(.constdata)
    xmp3_bitsPerSlotTab                      0x08014bd4   Data           6  mp3tabs.o(.constdata)
    xmp3_sideBytesTab                        0x08014bda   Data          12  mp3tabs.o(.constdata)
    xmp3_slotTab                             0x08014be6   Data         270  mp3tabs.o(.constdata)
    xmp3_sfBandTable                         0x08014cf4   Data         666  mp3tabs.o(.constdata)
    xmp3_huffTable                           0x080152a0   Data        8484  hufftabs.o(.constdata)
    xmp3_huffTabOffset                       0x080173c4   Data         128  hufftabs.o(.constdata)
    xmp3_huffTabLookup                       0x08017444   Data         256  hufftabs.o(.constdata)
    xmp3_quadTable                           0x08017544   Data          80  hufftabs.o(.constdata)
    xmp3_quadTabOffset                       0x08017594   Data           8  hufftabs.o(.constdata)
    xmp3_quadTabMaxBits                      0x0801759c   Data           8  hufftabs.o(.constdata)
    xmp3_imdctWin                            0x08017684   Data         576  trigtabs.o(.constdata)
    xmp3_ISFMpeg1                            0x080178c4   Data          56  trigtabs.o(.constdata)
    xmp3_ISFMpeg2                            0x080178fc   Data         256  trigtabs.o(.constdata)
    xmp3_ISFIIP                              0x080179fc   Data          16  trigtabs.o(.constdata)
    xmp3_uniqueIDTab                         0x08017a0c   Data           8  trigtabs.o(.constdata)
    xmp3_csa                                 0x08017a14   Data          64  trigtabs.o(.constdata)
    xmp3_coef32                              0x08017a54   Data         124  trigtabs.o(.constdata)
    xmp3_polyCoef                            0x08017ad0   Data        1056  trigtabs.o(.constdata)
    Region$$Table$$Base                      0x08017fc8   Number         0  anon$$obj.o(Region$$Table)
    Region$$Table$$Limit                     0x08017fe8   Number         0  anon$$obj.o(Region$$Table)
    __ctype                                  0x08018011   Data           0  lc_ctype_c.o(locale$$data)
    rca                                      0x20000004   Data           2  bsp_sdio.o(.data)
    card_capacity                            0x20000008   Data           4  bsp_sdio.o(.data)
    TIM7_Handler                             0x2000000c   Data           4  timer.o(.data)
    TIM2_Handler                             0x20000010   Data           4  timer.o(.data)
    TIM3_Handler                             0x20000014   Data           4  timer.o(.data)
    Mem_PoolTbl                              0x20000028   Data           4  lib_mem.o(.data)
    CPU_TS_TmrFreq_Hz                        0x2000002c   Data           4  cpu_core.o(.data)
    OS_CPU_ExceptStkBase                     0x20000030   Data           4  os_cpu_c.o(.data)
    OSPrioTbl                                0x20000034   Data           4  os_prio.o(.data)
    OS_AppTaskCreateHookPtr                  0x20000038   Data           4  os_var.o(.data)
    OS_AppTaskDelHookPtr                     0x2000003c   Data           4  os_var.o(.data)
    OS_AppTaskReturnHookPtr                  0x20000040   Data           4  os_var.o(.data)
    OS_AppIdleTaskHookPtr                    0x20000044   Data           4  os_var.o(.data)
    OS_AppStatTaskHookPtr                    0x20000048   Data           4  os_var.o(.data)
    OS_AppTaskSwHookPtr                      0x2000004c   Data           4  os_var.o(.data)
    OS_AppTimeTickHookPtr                    0x20000050   Data           4  os_var.o(.data)
    OSIdleTaskCtr                            0x20000054   Data           4  os_var.o(.data)
    OSIntNestingCtr                          0x20000058   Data           1  os_var.o(.data)
    OSRunning                                0x20000059   Data           1  os_var.o(.data)
    OSFlagDbgListPtr                         0x2000005c   Data           4  os_var.o(.data)
    OSFlagQty                                0x20000060   Data           2  os_var.o(.data)
    OSMemDbgListPtr                          0x20000064   Data           4  os_var.o(.data)
    OSMemQty                                 0x20000068   Data           2  os_var.o(.data)
    OSMutexDbgListPtr                        0x2000006c   Data           4  os_var.o(.data)
    OSMutexQty                               0x20000070   Data           2  os_var.o(.data)
    OSPrioCur                                0x20000072   Data           1  os_var.o(.data)
    OSPrioHighRdy                            0x20000073   Data           1  os_var.o(.data)
    OSPrioSaved                              0x20000074   Data           1  os_var.o(.data)
    OSQDbgListPtr                            0x20000078   Data           4  os_var.o(.data)
    OSQQty                                   0x2000007c   Data           2  os_var.o(.data)
    OSSchedLockTimeBegin                     0x20000080   Data           4  os_var.o(.data)
    OSSchedLockTimeMax                       0x20000084   Data           4  os_var.o(.data)
    OSSchedLockTimeMaxCur                    0x20000088   Data           4  os_var.o(.data)
    OSSchedLockNestingCtr                    0x2000008c   Data           1  os_var.o(.data)
    OSSchedRoundRobinDfltTimeQuanta          0x20000090   Data           4  os_var.o(.data)
    OSSchedRoundRobinEn                      0x20000094   Data           1  os_var.o(.data)
    OSSemDbgListPtr                          0x20000098   Data           4  os_var.o(.data)
    OSSemQty                                 0x2000009c   Data           2  os_var.o(.data)
    OSStatResetFlag                          0x2000009e   Data           1  os_var.o(.data)
    OSStatTaskCPUUsage                       0x200000a0   Data           2  os_var.o(.data)
    OSStatTaskCPUUsageMax                    0x200000a2   Data           2  os_var.o(.data)
    OSStatTaskCtr                            0x200000a4   Data           4  os_var.o(.data)
    OSStatTaskCtrMax                         0x200000a8   Data           4  os_var.o(.data)
    OSStatTaskCtrRun                         0x200000ac   Data           4  os_var.o(.data)
    OSStatTaskRdy                            0x200000b0   Data           1  os_var.o(.data)
    OSStatTaskTimeMax                        0x200000b4   Data           4  os_var.o(.data)
    OSTaskCtxSwCtr                           0x200000b8   Data           4  os_var.o(.data)
    OSTaskDbgListPtr                         0x200000bc   Data           4  os_var.o(.data)
    OSTaskQty                                0x200000c0   Data           2  os_var.o(.data)
    OSTaskRegNextAvailID                     0x200000c2   Data           1  os_var.o(.data)
    OSTickCtr                                0x200000c4   Data           4  os_var.o(.data)
    OSTickTaskTimeMax                        0x200000c8   Data           4  os_var.o(.data)
    OSTmrDbgListPtr                          0x200000cc   Data           4  os_var.o(.data)
    OSTmrQty                                 0x200000d0   Data           2  os_var.o(.data)
    OSTmrTaskTimeMax                         0x200000d4   Data           4  os_var.o(.data)
    OSTmrTickCtr                             0x200000d8   Data           4  os_var.o(.data)
    OSTmrUpdateCnt                           0x200000dc   Data           4  os_var.o(.data)
    OSTmrUpdateCtr                           0x200000e0   Data           4  os_var.o(.data)
    OSTCBCurPtr                              0x200000e4   Data           4  os_var.o(.data)
    OSTCBHighRdyPtr                          0x200000e8   Data           4  os_var.o(.data)
    SystemCoreClock                          0x200000f8   Data           4  system_stm32f2xx.o(.data)
    AHBPrescTable                            0x200000fc   Data          16  system_stm32f2xx.o(.data)
    in_buffer                                0x20000624   Data        2048  mp3_player.o(.bss)
    out_buffer                               0x20000e24   Data        9600  mp3_player.o(.bss)
    SDIO_CmdInitStructure                    0x20003560   Data          20  bsp_sdio.o(.bss)
    SDIO_InitStructure                       0x2000359c   Data          24  bsp_sdio.o(.bss)
    SDIO_DataInitStructure                   0x200035b4   Data          24  bsp_sdio.o(.bss)
    CSD_Tab                                  0x200035cc   Data          16  bsp_sdio.o(.bss)
    Mem_PoolHeap                             0x200035dc   Data          72  lib_mem.o(.bss)
    Mem_Heap                                 0x20003624   Data        9216  lib_mem.o(.bss)
    CPU_Name                                 0x20005a24   Data          16  cpu_core.o(.bss)
    OSCfg_IdleTaskStk                        0x20005a34   Data         512  os_cfg_app.o(.bss)
    OSCfg_ISRStk                             0x20005c34   Data        1024  os_cfg_app.o(.bss)
    OSCfg_MsgPool                            0x20006034   Data         800  os_cfg_app.o(.bss)
    OSCfg_StatTaskStk                        0x20006354   Data         512  os_cfg_app.o(.bss)
    OSCfg_TickTaskStk                        0x20006554   Data         512  os_cfg_app.o(.bss)
    OSCfg_TickWheel                          0x20006754   Data         128  os_cfg_app.o(.bss)
    OSCfg_TmrTaskStk                         0x200067d4   Data         512  os_cfg_app.o(.bss)
    OSCfg_TmrWheel                           0x200069d4   Data         128  os_cfg_app.o(.bss)
    OSIdleTaskTCB                            0x20006a54   Data         196  os_var.o(.bss)
    OSMsgPool                                0x20006b18   Data          12  os_var.o(.bss)
    OSRdyList                                0x20006b24   Data         144  os_var.o(.bss)
    OSStatTaskTCB                            0x20006bb4   Data         196  os_var.o(.bss)
    OSTickTaskTCB                            0x20006c78   Data         196  os_var.o(.bss)
    OSTmrTaskTCB                             0x20006d3c   Data         196  os_var.o(.bss)
    mp3DecInfo                               0x20006e00   Data        2032  buffers.o(.bss)
    sbi                                      0x200075f0   Data        8708  buffers.o(.bss)
    mi                                       0x200097f4   Data        6944  buffers.o(.bss)
    hi                                       0x2000b314   Data        4624  buffers.o(.bss)
    di                                       0x2000c524   Data         840  buffers.o(.bss)
    sfi                                      0x2000c86c   Data         284  buffers.o(.bss)
    si                                       0x2000c988   Data         328  buffers.o(.bss)
    fh                                       0x2000cad0   Data          56  buffers.o(.bss)
    __libspace_start                         0x2000cb08   Data          96  libspace.o(.bss)
    __temporary_stack_top$libspace           0x2000cb68   Data           0  libspace.o(.bss)



==============================================================================

Memory Map of the image

  Image Entry point : 0x08000185

  Load Region LR_IROM1 (Base: 0x08000000, Size: 0x00018220, Max: 0x00020000, ABSOLUTE)

    Execution Region ER_IROM1 (Base: 0x08000000, Size: 0x00018114, Max: 0x00020000, ABSOLUTE)

    Base Addr    Size         Type   Attr      Idx    E Section Name        Object

    0x08000000   0x00000184   Data   RO          532    RESET               cstartup.o
    0x08000184   0x00000008   Code   RO         2163  * !!!main             c_w.l(__main.o)
    0x0800018c   0x00000034   Code   RO         2635    !!!scatter          c_w.l(__scatter.o)
    0x080001c0   0x0000001a   Code   RO         2637    !!handler_copy      c_w.l(__scatter_copy.o)
    0x080001da   0x00000002   PAD
    0x080001dc   0x0000001c   Code   RO         2639    !!handler_zi        c_w.l(__scatter_zi.o)
    0x080001f8   0x00000000   Code   RO         2150    .ARM.Collect$$_printf_percent$$00000000  c_w.l(_printf_percent.o)
    0x080001f8   0x00000006   Code   RO         2218    .ARM.Collect$$_printf_percent$$00000001  c_w.l(_printf_n.o)
    0x080001fe   0x00000006   Code   RO         2220    .ARM.Collect$$_printf_percent$$00000002  c_w.l(_printf_p.o)
    0x08000204   0x00000006   Code   RO         2224    .ARM.Collect$$_printf_percent$$00000003  c_w.l(_printf_f.o)
    0x0800020a   0x00000006   Code   RO         2225    .ARM.Collect$$_printf_percent$$00000004  c_w.l(_printf_e.o)
    0x08000210   0x00000006   Code   RO         2226    .ARM.Collect$$_printf_percent$$00000005  c_w.l(_printf_g.o)
    0x08000216   0x00000006   Code   RO         2227    .ARM.Collect$$_printf_percent$$00000006  c_w.l(_printf_a.o)
    0x0800021c   0x0000000a   Code   RO         2232    .ARM.Collect$$_printf_percent$$00000007  c_w.l(_printf_ll.o)
    0x08000226   0x00000006   Code   RO         2222    .ARM.Collect$$_printf_percent$$00000008  c_w.l(_printf_i.o)
    0x0800022c   0x00000006   Code   RO         2149    .ARM.Collect$$_printf_percent$$00000009  c_w.l(_printf_d.o)
    0x08000232   0x00000006   Code   RO         2223    .ARM.Collect$$_printf_percent$$0000000A  c_w.l(_printf_u.o)
    0x08000238   0x00000006   Code   RO         2221    .ARM.Collect$$_printf_percent$$0000000B  c_w.l(_printf_o.o)
    0x0800023e   0x00000006   Code   RO         2219    .ARM.Collect$$_printf_percent$$0000000C  c_w.l(_printf_x.o)
    0x08000244   0x00000006   Code   RO         2229    .ARM.Collect$$_printf_percent$$0000000D  c_w.l(_printf_lli.o)
    0x0800024a   0x00000006   Code   RO         2230    .ARM.Collect$$_printf_percent$$0000000E  c_w.l(_printf_lld.o)
    0x08000250   0x00000006   Code   RO         2231    .ARM.Collect$$_printf_percent$$0000000F  c_w.l(_printf_llu.o)
    0x08000256   0x00000006   Code   RO         2236    .ARM.Collect$$_printf_percent$$00000010  c_w.l(_printf_llo.o)
    0x0800025c   0x00000006   Code   RO         2237    .ARM.Collect$$_printf_percent$$00000011  c_w.l(_printf_llx.o)
    0x08000262   0x0000000a   Code   RO         2233    .ARM.Collect$$_printf_percent$$00000012  c_w.l(_printf_l.o)
    0x0800026c   0x00000006   Code   RO         2216    .ARM.Collect$$_printf_percent$$00000013  c_w.l(_printf_c.o)
    0x08000272   0x00000006   Code   RO         2217    .ARM.Collect$$_printf_percent$$00000014  c_w.l(_printf_s.o)
    0x08000278   0x00000006   Code   RO         2234    .ARM.Collect$$_printf_percent$$00000015  c_w.l(_printf_lc.o)
    0x0800027e   0x00000006   Code   RO         2235    .ARM.Collect$$_printf_percent$$00000016  c_w.l(_printf_ls.o)
    0x08000284   0x00000004   Code   RO         2228    .ARM.Collect$$_printf_percent$$00000017  c_w.l(_printf_percent_end.o)
    0x08000288   0x00000002   Code   RO         2417    .ARM.Collect$$libinit$$00000000  c_w.l(libinit.o)
    0x0800028a   0x00000000   Code   RO         2419    .ARM.Collect$$libinit$$00000002  c_w.l(libinit2.o)
    0x0800028a   0x00000000   Code   RO         2421    .ARM.Collect$$libinit$$00000004  c_w.l(libinit2.o)
    0x0800028a   0x00000000   Code   RO         2424    .ARM.Collect$$libinit$$0000000A  c_w.l(libinit2.o)
    0x0800028a   0x00000000   Code   RO         2426    .ARM.Collect$$libinit$$0000000C  c_w.l(libinit2.o)
    0x0800028a   0x00000000   Code   RO         2428    .ARM.Collect$$libinit$$0000000E  c_w.l(libinit2.o)
    0x0800028a   0x00000006   Code   RO         2429    .ARM.Collect$$libinit$$0000000F  c_w.l(libinit2.o)
    0x08000290   0x00000000   Code   RO         2431    .ARM.Collect$$libinit$$00000011  c_w.l(libinit2.o)
    0x08000290   0x0000000c   Code   RO         2432    .ARM.Collect$$libinit$$00000012  c_w.l(libinit2.o)
    0x0800029c   0x00000000   Code   RO         2433    .ARM.Collect$$libinit$$00000013  c_w.l(libinit2.o)
    0x0800029c   0x00000000   Code   RO         2435    .ARM.Collect$$libinit$$00000015  c_w.l(libinit2.o)
    0x0800029c   0x0000000a   Code   RO         2436    .ARM.Collect$$libinit$$00000016  c_w.l(libinit2.o)
    0x080002a6   0x00000000   Code   RO         2437    .ARM.Collect$$libinit$$00000017  c_w.l(libinit2.o)
    0x080002a6   0x00000000   Code   RO         2439    .ARM.Collect$$libinit$$00000019  c_w.l(libinit2.o)
    0x080002a6   0x00000000   Code   RO         2441    .ARM.Collect$$libinit$$0000001B  c_w.l(libinit2.o)
    0x080002a6   0x00000000   Code   RO         2443    .ARM.Collect$$libinit$$0000001D  c_w.l(libinit2.o)
    0x080002a6   0x00000000   Code   RO         2445    .ARM.Collect$$libinit$$0000001F  c_w.l(libinit2.o)
    0x080002a6   0x00000000   Code   RO         2447    .ARM.Collect$$libinit$$00000021  c_w.l(libinit2.o)
    0x080002a6   0x00000000   Code   RO         2449    .ARM.Collect$$libinit$$00000023  c_w.l(libinit2.o)
    0x080002a6   0x00000000   Code   RO         2451    .ARM.Collect$$libinit$$00000025  c_w.l(libinit2.o)
    0x080002a6   0x00000000   Code   RO         2455    .ARM.Collect$$libinit$$0000002C  c_w.l(libinit2.o)
    0x080002a6   0x00000000   Code   RO         2457    .ARM.Collect$$libinit$$0000002E  c_w.l(libinit2.o)
    0x080002a6   0x00000000   Code   RO         2459    .ARM.Collect$$libinit$$00000030  c_w.l(libinit2.o)
    0x080002a6   0x00000000   Code   RO         2461    .ARM.Collect$$libinit$$00000032  c_w.l(libinit2.o)
    0x080002a6   0x00000002   Code   RO         2462    .ARM.Collect$$libinit$$00000033  c_w.l(libinit2.o)
    0x080002a8   0x00000002   Code   RO         2614    .ARM.Collect$$libshutdown$$00000000  c_w.l(libshutdown.o)
    0x080002aa   0x00000000   Code   RO         2465    .ARM.Collect$$libshutdown$$00000003  c_w.l(libshutdown2.o)
    0x080002aa   0x00000000   Code   RO         2468    .ARM.Collect$$libshutdown$$00000006  c_w.l(libshutdown2.o)
    0x080002aa   0x00000000   Code   RO         2471    .ARM.Collect$$libshutdown$$00000009  c_w.l(libshutdown2.o)
    0x080002aa   0x00000000   Code   RO         2473    .ARM.Collect$$libshutdown$$0000000B  c_w.l(libshutdown2.o)
    0x080002aa   0x00000000   Code   RO         2476    .ARM.Collect$$libshutdown$$0000000E  c_w.l(libshutdown2.o)
    0x080002aa   0x00000002   Code   RO         2477    .ARM.Collect$$libshutdown$$0000000F  c_w.l(libshutdown2.o)
    0x080002ac   0x00000000   Code   RO         2165    .ARM.Collect$$rtentry$$00000000  c_w.l(__rtentry.o)
    0x080002ac   0x00000000   Code   RO         2251    .ARM.Collect$$rtentry$$00000002  c_w.l(__rtentry2.o)
    0x080002ac   0x00000006   Code   RO         2263    .ARM.Collect$$rtentry$$00000004  c_w.l(__rtentry4.o)
    0x080002b2   0x00000000   Code   RO         2253    .ARM.Collect$$rtentry$$00000009  c_w.l(__rtentry2.o)
    0x080002b2   0x00000004   Code   RO         2254    .ARM.Collect$$rtentry$$0000000A  c_w.l(__rtentry2.o)
    0x080002b6   0x00000000   Code   RO         2256    .ARM.Collect$$rtentry$$0000000C  c_w.l(__rtentry2.o)
    0x080002b6   0x00000008   Code   RO         2257    .ARM.Collect$$rtentry$$0000000D  c_w.l(__rtentry2.o)
    0x080002be   0x00000002   Code   RO         2491    .ARM.Collect$$rtexit$$00000000  c_w.l(rtexit.o)
    0x080002c0   0x00000000   Code   RO         2552    .ARM.Collect$$rtexit$$00000002  c_w.l(rtexit2.o)
    0x080002c0   0x00000004   Code   RO         2553    .ARM.Collect$$rtexit$$00000003  c_w.l(rtexit2.o)
    0x080002c4   0x00000006   Code   RO         2554    .ARM.Collect$$rtexit$$00000004  c_w.l(rtexit2.o)
    0x080002ca   0x00000002   PAD
    0x080002cc   0x000001e0   Code   RO            2    .text               app.o
    0x080004ac   0x00000260   Code   RO          328    .text               mp3_player.o
    0x0800070c   0x00000140   Code   RO          426    .text               bsp.o
    0x0800084c   0x0000041c   Code   RO          445    .text               bsp_int.o
    0x08000c68   0x000002f8   Code   RO          463    .text               bsp_ser.o
    0x08000f60   0x000000b8   Code   RO          492    .text               bsp_os.o
    0x08001018   0x00000830   Code   RO          511    .text               bsp_sdio.o
    0x08001848   0x0000003c   Code   RO          533    .text               cstartup.o
    0x08001884   0x00000208   Code   RO          570    .text               timer.o
    0x08001a8c   0x0000006e   Code   RO          612    .text               util.o
    0x08001afa   0x00000002   PAD
    0x08001afc   0x00000070   Code   RO          628    .text               bsp_dac.o
    0x08001b6c   0x0000005c   Code   RO          647    .text               bsp_dma.o
    0x08001bc8   0x000000e0   Code   RO          663    .text               misc.o
    0x08001ca8   0x00000210   Code   RO          791    .text               stm32f2xx_dac.o
    0x08001eb8   0x000003a8   Code   RO          839    .text               stm32f2xx_dma.o
    0x08002260   0x0000025c   Code   RO          903    .text               stm32f2xx_gpio.o
    0x080024bc   0x00000588   Code   RO         1015    .text               stm32f2xx_rcc.o
    0x08002a44   0x000001f0   Code   RO         1065    .text               stm32f2xx_sdio.o
    0x08002c34   0x00000ca2   Code   RO         1113    .text               stm32f2xx_tim.o
    0x080038d6   0x00000002   PAD
    0x080038d8   0x0000041a   Code   RO         1129    .text               stm32f2xx_usart.o
    0x08003cf2   0x00000256   Code   RO         1160    .text               lib_ascii.o
    0x08003f48   0x00000ec4   Code   RO         1193    .text               lib_mem.o
    0x08004e0c   0x00000928   Code   RO         1212    .text               lib_str.o
    0x08005734   0x00000220   Code   RO         1229    .text               lib_mem_a.o
    0x08005954   0x000002a8   Code   RO         1232    .text               cpu_core.o
    0x08005bfc   0x00000034   Code   RO         1258    .text               cpu_a.o
    0x08005c30   0x0000077c   Code   RO         1261    .text               cpu_c.o
    0x080063ac   0x0000026c   Code   RO         1276    .text               os_cpu_c.o
    0x08006618   0x00000002   Code   RO         1294    .text               os_cfg_app.o
    0x0800661a   0x00000002   PAD
    0x0800661c   0x00000d9c   Code   RO         1317    .text               os_core.o
    0x080073b8   0x000001ac   Code   RO         1329    .text               os_dbg.o
    0x08007564   0x00000738   Code   RO         1344    .text               os_flag.o
    0x08007c9c   0x000001fc   Code   RO         1362    .text               os_mem.o
    0x08007e98   0x00000228   Code   RO         1374    .text               os_msg.o
    0x080080c0   0x000004d8   Code   RO         1386    .text               os_mutex.o
    0x08008598   0x0000007c   Code   RO         1410    .text               os_prio.o
    0x08008614   0x00000534   Code   RO         1429    .text               os_q.o
    0x08008b48   0x000005b4   Code   RO         1441    .text               os_sem.o
    0x080090fc   0x000005a8   Code   RO         1453    .text               os_stat.o
    0x080096a4   0x00001188   Code   RO         1465    .text               os_task.o
    0x0800a82c   0x00000484   Code   RO         1477    .text               os_tick.o
    0x0800acb0   0x0000030c   Code   RO         1489    .text               os_time.o
    0x0800afbc   0x00000740   Code   RO         1501    .text               os_tmr.o
    0x0800b6fc   0x000000dc   Code   RO         1528    .text               diskio.o
    0x0800b7d8   0x00002384   Code   RO         1548    .text               ff.o
    0x0800db5c   0x00000080   Code   RO         1563    .text               ccsbcs.o
    0x0800dbdc   0x000001e0   Code   RO         1587    .text               system_stm32f2xx.o
    0x0800ddbc   0x0000049c   Code   RO         1908    .text               mp3dec.o
    0x0800e258   0x00000530   Code   RO         1939    .text               bitstream.o
    0x0800e788   0x000000ac   Code   RO         1958    .text               buffers.o
    0x0800e834   0x00000d2c   Code   RO         1973    .text               dct32.o
    0x0800f560   0x000002a0   Code   RO         1987    .text               dequant.o
    0x0800f800   0x0000044e   Code   RO         2002    .text               dqchan.o
    0x0800fc4e   0x00000002   PAD
    0x0800fc50   0x0000072c   Code   RO         2016    .text               huffman.o
    0x0801037c   0x0000102c   Code   RO         2041    .text               imdct.o
    0x080113a8   0x000005b4   Code   RO         2058    .text               scalfact.o
    0x0801195c   0x00000624   Code   RO         2072    .text               stproc.o
    0x08011f80   0x00000118   Code   RO         2084    .text               subband.o
    0x08012098   0x00000016   Code   RO         2109    .text               asmmisc.o
    0x080120ae   0x00000002   PAD
    0x080120b0   0x0000080e   Code   RO         2113    .text               asmpoly_thumb2.o
    0x080128be   0x00000002   PAD
    0x080128c0   0x00000034   Code   RO         2119    .text               c_w.l(c89vsnprintf.o)
    0x080128f4   0x00000078   Code   RO         2127    .text               c_w.l(_printf_dec.o)
    0x0801296c   0x00000188   Code   RO         2146    .text               c_w.l(__printf_flags_ss_wp.o)
    0x08012af4   0x00000048   Code   RO         2151    .text               c_w.l(strcpy.o)
    0x08012b3c   0x00000018   Code   RO         2153    .text               c_w.l(strcat.o)
    0x08012b54   0x0000008a   Code   RO         2155    .text               c_w.l(rt_memcpy_v6.o)
    0x08012bde   0x00000084   Code   RO         2157    .text               c_w.l(rt_memmove_v6.o)
    0x08012c62   0x00000006   Code   RO         2161    .text               c_w.l(heapauxi.o)
    0x08012c68   0x0000004e   Code   RO         2166    .text               c_w.l(_printf_pad.o)
    0x08012cb6   0x00000024   Code   RO         2168    .text               c_w.l(_printf_truncate.o)
    0x08012cda   0x00000052   Code   RO         2170    .text               c_w.l(_printf_str.o)
    0x08012d2c   0x000000b2   Code   RO         2172    .text               c_w.l(_printf_intcommon.o)
    0x08012dde   0x00000028   Code   RO         2174    .text               c_w.l(_printf_charcount.o)
    0x08012e06   0x00000002   PAD
    0x08012e08   0x00000030   Code   RO         2176    .text               c_w.l(_printf_char_common.o)
    0x08012e38   0x0000000a   Code   RO         2178    .text               c_w.l(_sputc.o)
    0x08012e42   0x00000010   Code   RO         2180    .text               c_w.l(_snputc.o)
    0x08012e52   0x00000002   PAD
    0x08012e54   0x000000bc   Code   RO         2184    .text               c_w.l(_printf_wctomb.o)
    0x08012f10   0x0000007c   Code   RO         2187    .text               c_w.l(_printf_longlong_dec.o)
    0x08012f8c   0x00000070   Code   RO         2193    .text               c_w.l(_printf_oct_int_ll.o)
    0x08012ffc   0x00000094   Code   RO         2213    .text               c_w.l(_printf_hex_int_ll_ptr.o)
    0x08013090   0x00000064   Code   RO         2244    .text               c_w.l(rt_memcpy_w.o)
    0x080130f4   0x0000007a   Code   RO         2246    .text               c_w.l(rt_memmove_w.o)
    0x0801316e   0x0000008a   Code   RO         2265    .text               c_w.l(lludiv10.o)
    0x080131f8   0x0000041a   Code   RO         2267    .text               c_w.l(_printf_fp_dec.o)
    0x08013612   0x0000002c   Code   RO         2271    .text               c_w.l(_printf_char.o)
    0x0801363e   0x0000002c   Code   RO         2273    .text               c_w.l(_printf_wchar.o)
    0x0801366a   0x00000040   Code   RO         2289    .text               c_w.l(_wcrtomb.o)
    0x080136aa   0x0000004a   Code   RO         2298    .text               c_w.l(sys_stackheap_outer.o)
    0x080136f4   0x00000010   Code   RO         2300    .text               c_w.l(rt_ctype_table.o)
    0x08013704   0x00000008   Code   RO         2305    .text               c_w.l(rt_locale_intlibspace.o)
    0x0801370c   0x00000080   Code   RO         2363    .text               c_w.l(_printf_fp_infnan.o)
    0x0801378c   0x000000dc   Code   RO         2365    .text               c_w.l(bigflt0.o)
    0x08013868   0x0000000c   Code   RO         2406    .text               c_w.l(exit.o)
    0x08013874   0x00000008   Code   RO         2485    .text               c_w.l(libspace.o)
    0x0801387c   0x00000002   Code   RO         2488    .text               c_w.l(use_no_semi.o)
    0x0801387e   0x00000000   Code   RO         2490    .text               c_w.l(indicate_semi.o)
    0x0801387e   0x00000002   PAD
    0x08013880   0x00000080   Code   RO         2543    .text               c_w.l(strcmpv7m.o)
    0x08013900   0x0000000c   Code   RO         2549    .text               c_w.l(sys_exit.o)
    0x0801390c   0x0000003e   Code   RO         2368    CL$$btod_d2e        c_w.l(btod.o)
    0x0801394a   0x00000046   Code   RO         2370    CL$$btod_d2e_denorm_low  c_w.l(btod.o)
    0x08013990   0x00000060   Code   RO         2369    CL$$btod_d2e_norm_op1  c_w.l(btod.o)
    0x080139f0   0x00000338   Code   RO         2378    CL$$btod_div_common  c_w.l(btod.o)
    0x08013d28   0x000000c6   Code   RO         2375    CL$$btod_e2e        c_w.l(btod.o)
    0x08013dee   0x00000028   Code   RO         2372    CL$$btod_ediv       c_w.l(btod.o)
    0x08013e16   0x00000028   Code   RO         2371    CL$$btod_emul       c_w.l(btod.o)
    0x08013e3e   0x00000244   Code   RO         2377    CL$$btod_mult_common  c_w.l(btod.o)
    0x08014082   0x00000002   PAD
    0x08014084   0x00000084   Code   RO         1273    CODE                os_cpu_a.o
    0x08014108   0x00000028   Code   RO         2483    i.__ARM_fpclassify  m_ws.l(fpclassify.o)
    0x08014130   0x0000000e   Code   RO         2139    i._is_digit         c_w.l(__printf_wp.o)
    0x0801413e   0x00000002   PAD
    0x08014140   0x0000002c   Code   RO         2404    locale$$code        c_w.l(lc_numeric_c.o)
    0x0801416c   0x0000002c   Code   RO         2533    locale$$code        c_w.l(lc_ctype_c.o)
    0x08014198   0x00000004   Code   RO         2248    x$fpl$printf1       fz_ws.l(printf1.o)
    0x0801419c   0x00000000   Code   RO         2482    x$fpl$usenofp       fz_ws.l(usenofp.o)
    0x0801419c   0x00000094   Data   RO         1213    .constdata          lib_str.o
    0x08014230   0x00000100   Data   RO         1234    .constdata          cpu_core.o
    0x08014330   0x000000a4   Data   RO         1296    .constdata          os_cfg_app.o
    0x080143d4   0x0000016c   Data   RO         1330    .constdata          os_dbg.o
    0x08014540   0x0000008d   Data   RO         1549    .constdata          ff.o
    0x080145cd   0x00000001   PAD
    0x080145ce   0x000004c0   Data   RO         1564    .constdata          ccsbcs.o
    0x08014a8e   0x00000002   PAD
    0x08014a90   0x000004fe   Data   RO         1927    .constdata          mp3tabs.o
    0x08014f8e   0x00000002   PAD
    0x08014f90   0x000000c0   Data   RO         1974    .constdata          dct32.o
    0x08015050   0x00000250   Data   RO         2003    .constdata          dqchan.o
    0x080152a0   0x00002304   Data   RO         2028    .constdata          hufftabs.o
    0x080175a4   0x00000078   Data   RO         2042    .constdata          imdct.o
    0x0801761c   0x00000068   Data   RO         2059    .constdata          scalfact.o
    0x08017684   0x0000086c   Data   RO         2096    .constdata          trigtabs.o
    0x08017ef0   0x00000011   Data   RO         2147    .constdata          c_w.l(__printf_flags_ss_wp.o)
    0x08017f01   0x00000003   PAD
    0x08017f04   0x00000008   Data   RO         2185    .constdata          c_w.l(_printf_wctomb.o)
    0x08017f0c   0x00000028   Data   RO         2214    .constdata          c_w.l(_printf_hex_int_ll_ptr.o)
    0x08017f34   0x00000094   Data   RO         2366    .constdata          c_w.l(bigflt0.o)
    0x08017fc8   0x00000020   Data   RO         2633    Region$$Table       anon$$obj.o
    0x08017fe8   0x0000001c   Data   RO         2403    locale$$data        c_w.l(lc_numeric_c.o)
    0x08018004   0x00000110   Data   RO         2532    locale$$data        c_w.l(lc_ctype_c.o)


    Execution Region RW_IRAM1 (Base: 0x20000000, Size: 0x0000dd68, Max: 0x00010000, ABSOLUTE)

    Base Addr    Size         Type   Attr      Idx    E Section Name        Object

    0x20000000   0x00000001   Data   RW          465    .data               bsp_ser.o
    0x20000001   0x00000003   PAD
    0x20000004   0x00000008   Data   RW          513    .data               bsp_sdio.o
    0x2000000c   0x0000000c   Data   RW          571    .data               timer.o
    0x20000018   0x00000010   Data   RW         1016    .data               stm32f2xx_rcc.o
    0x20000028   0x00000004   Data   RW         1195    .data               lib_mem.o
    0x2000002c   0x00000004   Data   RW         1235    .data               cpu_core.o
    0x20000030   0x00000004   Data   RW         1277    .data               os_cpu_c.o
    0x20000034   0x00000004   Data   RW         1411    .data               os_prio.o
    0x20000038   0x000000b4   Data   RW         1514    .data               os_var.o
    0x200000ec   0x00000001   Data   RW         1529    .data               diskio.o
    0x200000ed   0x00000003   PAD
    0x200000f0   0x00000006   Data   RW         1550    .data               ff.o
    0x200000f6   0x00000002   PAD
    0x200000f8   0x00000014   Data   RW         1588    .data               system_stm32f2xx.o
    0x2000010c   0x00000518   Zero   RW            3    .bss                app.o
    0x20000624   0x00002d80   Zero   RW          329    .bss                mp3_player.o
    0x200033a4   0x00000144   Zero   RW          446    .bss                bsp_int.o
    0x200034e8   0x00000078   Zero   RW          464    .bss                bsp_ser.o
    0x20003560   0x0000007c   Zero   RW          512    .bss                bsp_sdio.o
    0x200035dc   0x00002448   Zero   RW         1194    .bss                lib_mem.o
    0x20005a24   0x00000010   Zero   RW         1233    .bss                cpu_core.o
    0x20005a34   0x00001020   Zero   RW         1295    .bss                os_cfg_app.o
    0x20006a54   0x000003ac   Zero   RW         1513    .bss                os_var.o
    0x20006e00   0x00005d08   Zero   RW         1959    .bss                buffers.o
    0x2000cb08   0x00000060   Zero   RW         2486    .bss                c_w.l(libspace.o)
    0x2000cb68   0x00000200   Zero   RW          531    HEAP                cstartup.o
    0x2000cd68   0x00001000   Zero   RW          530    STACK               cstartup.o


==============================================================================

Image component sizes


      Code (inc. data)   RO Data    RW Data    ZI Data      Debug   Object Name

       480        136          0          0       1304     330659   app.o
        22          0          0          0          0        380   asmmisc.o
      2062          0          0          0          0        556   asmpoly_thumb2.o
      1328         24          0          0          0       8152   bitstream.o
       320         22          0          0          0       1843   bsp.o
       112          4          0          0          0        611   bsp_dac.o
        92          8          0          0          0        523   bsp_dma.o
      1052          8          0          0        324      13394   bsp_int.o
       184          4          0          0          0       2098   bsp_os.o
      2096         54          0          8        124       9680   bsp_sdio.o
       760         72          0          1        120       3604   bsp_ser.o
       172         32          0          0      23816       1704   buffers.o
       128         12       1216          0          0       1905   ccsbcs.o
        52          0          0          0          0        284   cpu_a.o
      1916        102          0          0          0       3397   cpu_c.o
       680         14        256          4         16      13940   cpu_core.o
        60         28        388          0       4608        632   cstartup.o
      3372         10        192          0          0       4374   dct32.o
       672          4          0          0          0       1798   dequant.o
       220          6          0          1          0       3250   diskio.o
      1102         36        592          0          0       3606   dqchan.o
      9092         48        141          6          0      24784   ff.o
      1836         26          0          0          0       5465   huffman.o
         0          0       8964          0          0       5628   hufftabs.o
      4140         56        120          0          0       9181   imdct.o
       598          0          0          0          0       3656   lib_ascii.o
      3780         62          0          4       9288      24272   lib_mem.o
       544          0          0          0          0        432   lib_mem_a.o
      2344          4        148          0          0      12950   lib_str.o
       224         20          0          0          0       1741   misc.o
       608         20          0          0      11648     225706   mp3_player.o
      1180          4          0          0          0       5543   mp3dec.o
         0          0       1278          0          0       1885   mp3tabs.o
         2          0        164          0       4128      19362   os_cfg_app.o
      3484        272          0          0          0      11751   os_core.o
       132         32          0          0          0        316   os_cpu_a.o
       620         66          0          4          0       3477   os_cpu_c.o
       428        280        364          0          0       4661   os_dbg.o
      1848         68          0          0          0       5521   os_flag.o
       508         16          0          0          0       2564   os_mem.o
       552         14          0          0          0       2530   os_msg.o
      1240         62          0          0          0       3342   os_mutex.o
       124          4          0          4          0       1632   os_prio.o
      1332         48          0          0          0       4624   os_q.o
      1460         56          0          0          0       5043   os_sem.o
      1448        150          0          0          0       2649   os_stat.o
      4488        156          0          0          0      11611   os_task.o
      1156         74          0          0          0       3089   os_tick.o
       780         44          0          0          0       2501   os_time.o
      1856        132          0          0          0       5921   os_tmr.o
         0          0          0        180        940      17985   os_var.o
      1460          8        104          0          0       3726   scalfact.o
       528          6          0          0          0       4773   stm32f2xx_dac.o
       936         32          0          0          0       6169   stm32f2xx_dma.o
       604         36          0          0          0       3837   stm32f2xx_gpio.o
      1416         48          0         16          0      10771   stm32f2xx_rcc.o
       496         18          0          0          0       7072   stm32f2xx_sdio.o
      3234         60          0          0          0      22068   stm32f2xx_tim.o
      1050         26          0          0          0       7544   stm32f2xx_usart.o
      1572         16          0          0          0       3899   stproc.o
       280          4          0          0          0       1139   subband.o
       480         40          0         20          0       1747   system_stm32f2xx.o
       520         28          0         12          0       2375   timer.o
         0          0       2156          0          0        932   trigtabs.o
       110          0          0          0          0       1186   util.o

    ----------------------------------------------------------------------
     75384       2612      16120        268      56316     913450   Object Totals
         0          0         32          0          0          0   (incl. Generated)
        12          0          5          8          0          0   (incl. Padding)

    ----------------------------------------------------------------------

      Code (inc. data)   RO Data    RW Data    ZI Data      Debug   Library Member Name

         8          0          0          0          0         68   __main.o
       392          4         17          0          0         92   __printf_flags_ss_wp.o
        14          0          0          0          0         68   __printf_wp.o
         0          0          0          0          0          0   __rtentry.o
        12          0          0          0          0          0   __rtentry2.o
         6          0          0          0          0          0   __rtentry4.o
        52          8          0          0          0          0   __scatter.o
        26          0          0          0          0          0   __scatter_copy.o
        28          0          0          0          0          0   __scatter_zi.o
         6          0          0          0          0          0   _printf_a.o
         6          0          0          0          0          0   _printf_c.o
        44          0          0          0          0        108   _printf_char.o
        48          6          0          0          0         96   _printf_char_common.o
        40          0          0          0          0         68   _printf_charcount.o
         6          0          0          0          0          0   _printf_d.o
       120         16          0          0          0         92   _printf_dec.o
         6          0          0          0          0          0   _printf_e.o
         6          0          0          0          0          0   _printf_f.o
      1050          0          0          0          0        216   _printf_fp_dec.o
       128         16          0          0          0         84   _printf_fp_infnan.o
         6          0          0          0          0          0   _printf_g.o
       148          4         40          0          0        160   _printf_hex_int_ll_ptr.o
         6          0          0          0          0          0   _printf_i.o
       178          0          0          0          0         88   _printf_intcommon.o
        10          0          0          0          0          0   _printf_l.o
         6          0          0          0          0          0   _printf_lc.o
        10          0          0          0          0          0   _printf_ll.o
         6          0          0          0          0          0   _printf_lld.o
         6          0          0          0          0          0   _printf_lli.o
         6          0          0          0          0          0   _printf_llo.o
         6          0          0          0          0          0   _printf_llu.o
         6          0          0          0          0          0   _printf_llx.o
       124         16          0          0          0         92   _printf_longlong_dec.o
         6          0          0          0          0          0   _printf_ls.o
         6          0          0          0          0          0   _printf_n.o
         6          0          0          0          0          0   _printf_o.o
       112          8          0          0          0        124   _printf_oct_int_ll.o
         6          0          0          0          0          0   _printf_p.o
        78          0          0          0          0        108   _printf_pad.o
         0          0          0          0          0          0   _printf_percent.o
         4          0          0          0          0          0   _printf_percent_end.o
         6          0          0          0          0          0   _printf_s.o
        82          0          0          0          0         80   _printf_str.o
        36          0          0          0          0         84   _printf_truncate.o
         6          0          0          0          0          0   _printf_u.o
        44          0          0          0          0        108   _printf_wchar.o
       188          6          8          0          0         92   _printf_wctomb.o
         6          0          0          0          0          0   _printf_x.o
        16          0          0          0          0         68   _snputc.o
        10          0          0          0          0         68   _sputc.o
        64          0          0          0          0         92   _wcrtomb.o
       220          4        148          0          0         96   bigflt0.o
      1910        128          0          0          0        672   btod.o
        52          4          0          0          0         80   c89vsnprintf.o
        12          0          0          0          0         72   exit.o
         6          0          0          0          0        152   heapauxi.o
         0          0          0          0          0          0   indicate_semi.o
        44         10        272          0          0         76   lc_ctype_c.o
        44         10         28          0          0         76   lc_numeric_c.o
         2          0          0          0          0          0   libinit.o
        30          0          0          0          0          0   libinit2.o
         2          0          0          0          0          0   libshutdown.o
         2          0          0          0          0          0   libshutdown2.o
         8          4          0          0         96         68   libspace.o
       138          0          0          0          0         80   lludiv10.o
        16          4          0          0          0         76   rt_ctype_table.o
         8          4          0          0          0         68   rt_locale_intlibspace.o
       138          0          0          0          0         68   rt_memcpy_v6.o
       100          0          0          0          0         80   rt_memcpy_w.o
       132          0          0          0          0         68   rt_memmove_v6.o
       122          0          0          0          0         80   rt_memmove_w.o
         2          0          0          0          0          0   rtexit.o
        10          0          0          0          0          0   rtexit2.o
        24          0          0          0          0         68   strcat.o
       128          0          0          0          0         68   strcmpv7m.o
        72          0          0          0          0         80   strcpy.o
        12          4          0          0          0         68   sys_exit.o
        74          0          0          0          0         80   sys_stackheap_outer.o
         2          0          0          0          0         68   use_no_semi.o
         4          0          0          0          0         68   printf1.o
         0          0          0          0          0          0   usenofp.o
        40          0          0          0          0         68   fpclassify.o

    ----------------------------------------------------------------------
      6560        256        516          0         96       4436   Library Totals
        14          0          3          0          0          0   (incl. Padding)

    ----------------------------------------------------------------------

      Code (inc. data)   RO Data    RW Data    ZI Data      Debug   Library Name

      6502        256        513          0         96       4300   c_w.l
         4          0          0          0          0         68   fz_ws.l
        40          0          0          0          0         68   m_ws.l

    ----------------------------------------------------------------------
      6560        256        516          0         96       4436   Library Totals

    ----------------------------------------------------------------------

==============================================================================


      Code (inc. data)   RO Data    RW Data    ZI Data      Debug   

     81944       2868      16636        268      56412     910134   Grand Totals
     81944       2868      16636        268      56412     910134   ELF Image Totals
     81944       2868      16636        268          0          0   ROM Totals

==============================================================================

    Total RO  Size (Code + RO Data)                98580 (  96.27kB)
    Total RW  Size (RW Data + ZI Data)             56680 (  55.35kB)
    Total ROM Size (Code + RO Data + RW Data)      98848 (  96.53kB)

==============================================================================

